
========================================================================

** ELF Header Information

    File Name: .\obj\template.axf

    Machine class: ELFCLASS32 (32-bit)
    Data encoding: ELFDATA2LSB (Little endian)
    Header version: EV_CURRENT (Current version)
    Operating System ABI: none
    ABI Version: 0
    File Type: ET_EXEC (Executable) (2)
    Machine: EM_ARM (ARM)

    Image Entry point: 0x000000d5
    Flags: EF_ARM_HASENTRY + EF_ARM_ABI_FLOAT_SOFT (0x05000202)

    ARM ELF revision: 5 (ABI version 2)

    Conforms to Soft float procedure-call standard

    Built with
    Component: Arm Compiler for Embedded 6.22 Tool: armasm [5ee90e00]
    Component: Arm Compiler for Embedded 6.22 Tool: armlink [5ee90200]

    Header size: 52 bytes (0x34)
    Program header entry size: 32 bytes (0x20)
    Section header entry size: 40 bytes (0x28)

    Program header entries: 1
    Section header entries: 16

    Program header offset: 48604 (0x0000bddc)
    Section header offset: 48636 (0x0000bdfc)

    Section header string table index: 15

========================================================================

** Program header #0 (PT_LOAD) [PF_X + PF_W + PF_R + PF_ARM_ENTRY]
    Size : 8104 bytes (5616 bytes in file)
    Virtual address: 0x00000000 (Alignment 8)


========================================================================

** Section #1 'ER_RO' (SHT_PROGBITS) [SHF_ALLOC + SHF_EXECINSTR]
    Size   : 5568 bytes (alignment 4)
    Address: 0x00000000

    $d.realdata
    RESET
    __Vectors
        0x00000000:    200009e8    ...     DCD    536873448
        0x00000004:    000000d5    ....    DCD    213
        0x00000008:    000000fb    ....    DCD    251
        0x0000000c:    000000fd    ....    DCD    253
        0x00000010:    00000000    ....    DCD    0
        0x00000014:    00000000    ....    DCD    0
        0x00000018:    00000000    ....    DCD    0
        0x0000001c:    00000000    ....    DCD    0
        0x00000020:    00000000    ....    DCD    0
        0x00000024:    00000000    ....    DCD    0
        0x00000028:    00000000    ....    DCD    0
        0x0000002c:    0000010d    ....    DCD    269
        0x00000030:    00000000    ....    DCD    0
        0x00000034:    00000000    ....    DCD    0
        0x00000038:    0000010f    ....    DCD    271
        0x0000003c:    000003c5    ....    DCD    965
        0x00000040:    00000113    ....    DCD    275
        0x00000044:    00000113    ....    DCD    275
        0x00000048:    00000113    ....    DCD    275
        0x0000004c:    00000113    ....    DCD    275
        0x00000050:    00000113    ....    DCD    275
        0x00000054:    00000113    ....    DCD    275
        0x00000058:    00000113    ....    DCD    275
        0x0000005c:    00000113    ....    DCD    275
        0x00000060:    00000113    ....    DCD    275
        0x00000064:    000004a1    ....    DCD    1185
        0x00000068:    00000113    ....    DCD    275
        0x0000006c:    00000113    ....    DCD    275
        0x00000070:    00000645    E...    DCD    1605
        0x00000074:    00000113    ....    DCD    275
        0x00000078:    00000113    ....    DCD    275
        0x0000007c:    00000113    ....    DCD    275
        0x00000080:    00000113    ....    DCD    275
        0x00000084:    00000113    ....    DCD    275
        0x00000088:    00000113    ....    DCD    275
        0x0000008c:    00000113    ....    DCD    275
        0x00000090:    00000113    ....    DCD    275
        0x00000094:    00000113    ....    DCD    275
        0x00000098:    00000113    ....    DCD    275
        0x0000009c:    00000113    ....    DCD    275
        0x000000a0:    00000113    ....    DCD    275
        0x000000a4:    00000113    ....    DCD    275
        0x000000a8:    00000113    ....    DCD    275
        0x000000ac:    00000113    ....    DCD    275
        0x000000b0:    00000113    ....    DCD    275
        0x000000b4:    00000113    ....    DCD    275
        0x000000b8:    00000113    ....    DCD    275
        0x000000bc:    00000113    ....    DCD    275
    $t
    .ARM.Collect$$$$00000000
    .ARM.Collect$$$$00000001
    __main
    _main_stk
        0x000000c0:    4803        .H      LDR      r0,__lit__00000000 ; [0xd0] = 0x200009e8
        0x000000c2:    4685        .F      MOV      sp,r0
    .ARM.Collect$$$$00000004
    _main_scatterload
        0x000000c4:    f000f876    ..v.    BL       __scatterload ; 0x1b4
    .ARM.Collect$$$$00000008
    .ARM.Collect$$$$0000000A
    .ARM.Collect$$$$0000000B
    __main_after_scatterload
    _main_clock
    _main_cpp_init
    _main_init
        0x000000c8:    4800        .H      LDR      r0,[pc,#0] ; [0xcc] = 0x701
        0x000000ca:    4700        .G      BX       r0
    $d
        0x000000cc:    00000701    ....    DCD    1793
    .ARM.Collect$$$$00002712
    __lit__00000000
    .ARM.Collect$$$$0000000D
    .ARM.Collect$$$$0000000F
    __rt_final_cpp
    __rt_final_exit
        0x000000d0:    200009e8    ...     DCD    536873448
    $t
    .text
    Reset_Handler
        0x000000d4:    4813        .H      LDR      r0,[pc,#76] ; [0x124] = 0x40000100
        0x000000d6:    4914        .I      LDR      r1,[pc,#80] ; [0x128] = 0x59
        0x000000d8:    6001        .`      STR      r1,[r0,#0]
        0x000000da:    4914        .I      LDR      r1,[pc,#80] ; [0x12c] = 0x16
        0x000000dc:    6001        .`      STR      r1,[r0,#0]
        0x000000de:    4914        .I      LDR      r1,[pc,#80] ; [0x130] = 0x88
        0x000000e0:    6001        .`      STR      r1,[r0,#0]
        0x000000e2:    4a14        .J      LDR      r2,[pc,#80] ; [0x134] = 0x40000024
        0x000000e4:    4914        .I      LDR      r1,[pc,#80] ; [0x138] = 0x5aa5
        0x000000e6:    6011        .`      STR      r1,[r2,#0]
        0x000000e8:    4a14        .J      LDR      r2,[pc,#80] ; [0x13c] = 0x40000280
        0x000000ea:    4915        .I      LDR      r1,[pc,#84] ; [0x140] = 0x1
        0x000000ec:    6011        .`      STR      r1,[r2,#0]
        0x000000ee:    2100        .!      MOVS     r1,#0
        0x000000f0:    6001        .`      STR      r1,[r0,#0]
        0x000000f2:    4814        .H      LDR      r0,[pc,#80] ; [0x144] = 0x46d
        0x000000f4:    4780        .G      BLX      r0
        0x000000f6:    4814        .H      LDR      r0,[pc,#80] ; [0x148] = 0xc1
        0x000000f8:    4700        .G      BX       r0
    NMI_Handler
        0x000000fa:    e7fe        ..      B        NMI_Handler ; 0xfa
    HardFault_Handler
        0x000000fc:    4670        pF      MOV      r0,lr
        0x000000fe:    f3ef8108    ....    MRS      r1,MSP
        0x00000102:    f3ef8209    ....    MRS      r2,PSP
        0x00000106:    4b11        .K      LDR      r3,[pc,#68] ; [0x14c] = 0x369
        0x00000108:    4798        .G      BLX      r3
        0x0000010a:    4700        .G      BX       r0
    SVC_Handler
        0x0000010c:    e7fe        ..      B        SVC_Handler ; 0x10c
    PendSV_Handler
        0x0000010e:    e7fe        ..      B        PendSV_Handler ; 0x10e
        0x00000110:    e7fe        ..      B        0x110 ; PendSV_Handler + 2
    Default_Handler
    ACMP01_IRQHandler
    ADC_IRQHandler
    BOD_IRQHandler
    BPWM0_IRQHandler
    BPWM1_IRQHandler
    CKFAIL_IRQHandler
    EINT024_IRQHandler
    EINT135_IRQHandler
    GPABGH_IRQHandler
    GPCDEF_IRQHandler
    I2C0_IRQHandler
    I2C1_IRQHandler
    ISP_IRQHandler
    PDMA_IRQHandler
    PWM0_IRQHandler
    PWM1_IRQHandler
    PWRWU_IRQHandler
    QSPI0_IRQHandler
    RTC_IRQHandler
    SPI0_IRQHandler
    TMR0_IRQHandler
    TMR2_IRQHandler
    TMR3_IRQHandler
    UART13_IRQHandler
    UART46_IRQHandler
    UART57_IRQHandler
    USBD_IRQHandler
    USCI01_IRQHandler
    WDT_IRQHandler
        0x00000112:    e7fe        ..      B        Default_Handler ; 0x112
    SH_DoCommand
        0x00000114:    beab        ..      BKPT     #0xab
        0x00000116:    4b0e        .K      LDR      r3,[pc,#56] ; [0x150] = 0x3a9
        0x00000118:    b508        ..      PUSH     {r3,lr}
        0x0000011a:    4798        .G      BLX      r3
        0x0000011c:    bd08        ..      POP      {r3,pc}
    __PC
        0x0000011e:    4670        pF      MOV      r0,lr
        0x00000120:    47f0        .G      BLX      lr
    $d
        0x00000122:    0000        ..      DCW    0
        0x00000124:    40000100    ...@    DCD    1073742080
        0x00000128:    00000059    Y...    DCD    89
        0x0000012c:    00000016    ....    DCD    22
        0x00000130:    00000088    ....    DCD    136
        0x00000134:    40000024    $..@    DCD    1073741860
        0x00000138:    00005aa5    .Z..    DCD    23205
        0x0000013c:    40000280    ...@    DCD    1073742464
        0x00000140:    00000001    ....    DCD    1
        0x00000144:    0000046d    m...    DCD    1133
        0x00000148:    000000c1    ....    DCD    193
        0x0000014c:    00000369    i...    DCD    873
        0x00000150:    000003a9    ....    DCD    937
    $t
    .text
    __aeabi_uldivmod
        0x00000154:    b5f0        ..      PUSH     {r4-r7,lr}
        0x00000156:    b41f        ..      PUSH     {r0-r4}
        0x00000158:    4606        .F      MOV      r6,r0
        0x0000015a:    2000        .       MOVS     r0,#0
        0x0000015c:    b082        ..      SUB      sp,sp,#8
        0x0000015e:    4605        .F      MOV      r5,r0
        0x00000160:    2440        @$      MOVS     r4,#0x40
        0x00000162:    9101        ..      STR      r1,[sp,#4]
        0x00000164:    9000        ..      STR      r0,[sp,#0]
        0x00000166:    e01b        ..      B        0x1a0 ; __aeabi_uldivmod + 76
        0x00000168:    9901        ..      LDR      r1,[sp,#4]
        0x0000016a:    4622        "F      MOV      r2,r4
        0x0000016c:    460f        .F      MOV      r7,r1
        0x0000016e:    4630        0F      MOV      r0,r6
        0x00000170:    f000f867    ..g.    BL       __aeabi_llsr ; 0x242
        0x00000174:    9a04        ..      LDR      r2,[sp,#0x10]
        0x00000176:    9b05        ..      LDR      r3,[sp,#0x14]
        0x00000178:    1a80        ..      SUBS     r0,r0,r2
        0x0000017a:    4199        .A      SBCS     r1,r1,r3
        0x0000017c:    d310        ..      BCC      0x1a0 ; __aeabi_uldivmod + 76
        0x0000017e:    4610        .F      MOV      r0,r2
        0x00000180:    4619        .F      MOV      r1,r3
        0x00000182:    4622        "F      MOV      r2,r4
        0x00000184:    f000f84d    ..M.    BL       __aeabi_llsl ; 0x222
        0x00000188:    1a36        6.      SUBS     r6,r6,r0
        0x0000018a:    418f        .A      SBCS     r7,r7,r1
        0x0000018c:    9701        ..      STR      r7,[sp,#4]
        0x0000018e:    4622        "F      MOV      r2,r4
        0x00000190:    2001        .       MOVS     r0,#1
        0x00000192:    2100        .!      MOVS     r1,#0
        0x00000194:    9f00        ..      LDR      r7,[sp,#0]
        0x00000196:    f000f844    ..D.    BL       __aeabi_llsl ; 0x222
        0x0000019a:    1838        8.      ADDS     r0,r7,r0
        0x0000019c:    414d        MA      ADCS     r5,r5,r1
        0x0000019e:    9000        ..      STR      r0,[sp,#0]
        0x000001a0:    4620         F      MOV      r0,r4
        0x000001a2:    1e64        d.      SUBS     r4,r4,#1
        0x000001a4:    2800        .(      CMP      r0,#0
        0x000001a6:    dcdf        ..      BGT      0x168 ; __aeabi_uldivmod + 20
        0x000001a8:    9b01        ..      LDR      r3,[sp,#4]
        0x000001aa:    9800        ..      LDR      r0,[sp,#0]
        0x000001ac:    4629        )F      MOV      r1,r5
        0x000001ae:    4632        2F      MOV      r2,r6
        0x000001b0:    b007        ..      ADD      sp,sp,#0x1c
        0x000001b2:    bdf0        ..      POP      {r4-r7,pc}
    .text
    __scatterload
    __scatterload_rt2
        0x000001b4:    b51c        ..      PUSH     {r2-r4,lr}
        0x000001b6:    4809        .H      LDR      r0,[pc,#36] ; [0x1dc] = 0x15a0
        0x000001b8:    9000        ..      STR      r0,[sp,#0]
        0x000001ba:    4809        .H      LDR      r0,[pc,#36] ; [0x1e0] = 0x15c0
        0x000001bc:    9001        ..      STR      r0,[sp,#4]
        0x000001be:    4605        .F      MOV      r5,r0
        0x000001c0:    2601        .&      MOVS     r6,#1
        0x000001c2:    9c00        ..      LDR      r4,[sp,#0]
        0x000001c4:    e005        ..      B        0x1d2 ; __scatterload + 30
        0x000001c6:    68e3        .h      LDR      r3,[r4,#0xc]
        0x000001c8:    cc07        ..      LDM      r4!,{r0-r2}
        0x000001ca:    4333        3C      ORRS     r3,r3,r6
        0x000001cc:    3c0c        .<      SUBS     r4,r4,#0xc
        0x000001ce:    4798        .G      BLX      r3
        0x000001d0:    3410        .4      ADDS     r4,r4,#0x10
        0x000001d2:    42ac        .B      CMP      r4,r5
        0x000001d4:    d3f7        ..      BCC      0x1c6 ; __scatterload + 18
        0x000001d6:    f7ffff77    ..w.    BL       __main_after_scatterload ; 0xc8
    $d
        0x000001da:    0000        ..      DCW    0
        0x000001dc:    000015a0    ....    DCD    5536
        0x000001e0:    000015c0    ....    DCD    5568
    $t
    .text
    __aeabi_uidiv
    __aeabi_uidivmod
        0x000001e4:    b570        p.      PUSH     {r4-r6,lr}
        0x000001e6:    4604        .F      MOV      r4,r0
        0x000001e8:    2900        .)      CMP      r1,#0
        0x000001ea:    d003        ..      BEQ      0x1f4 ; __aeabi_uidiv + 16
        0x000001ec:    2000        .       MOVS     r0,#0
        0x000001ee:    2220         "      MOVS     r2,#0x20
        0x000001f0:    2301        .#      MOVS     r3,#1
        0x000001f2:    e010        ..      B        0x216 ; __aeabi_uidiv + 50
        0x000001f4:    2800        .(      CMP      r0,#0
        0x000001f6:    d001        ..      BEQ      0x1fc ; __aeabi_uidiv + 24
        0x000001f8:    2000        .       MOVS     r0,#0
        0x000001fa:    43c0        .C      MVNS     r0,r0
        0x000001fc:    46c0        .F      MOV      r8,r8
        0x000001fe:    46c0        .F      MOV      r8,r8
        0x00000200:    e00d        ..      B        0x21e ; __aeabi_uidiv + 58
        0x00000202:    4625        %F      MOV      r5,r4
        0x00000204:    40d5        .@      LSRS     r5,r5,r2
        0x00000206:    428d        .B      CMP      r5,r1
        0x00000208:    d305        ..      BCC      0x216 ; __aeabi_uidiv + 50
        0x0000020a:    460d        .F      MOV      r5,r1
        0x0000020c:    4095        .@      LSLS     r5,r5,r2
        0x0000020e:    1b64        d.      SUBS     r4,r4,r5
        0x00000210:    461d        .F      MOV      r5,r3
        0x00000212:    4095        .@      LSLS     r5,r5,r2
        0x00000214:    1940        @.      ADDS     r0,r0,r5
        0x00000216:    4615        .F      MOV      r5,r2
        0x00000218:    1e52        R.      SUBS     r2,r2,#1
        0x0000021a:    2d00        .-      CMP      r5,#0
        0x0000021c:    dcf1        ..      BGT      0x202 ; __aeabi_uidiv + 30
        0x0000021e:    4621        !F      MOV      r1,r4
        0x00000220:    bd70        p.      POP      {r4-r6,pc}
    .text
    __aeabi_llsl
    _ll_shift_l
        0x00000222:    b510        ..      PUSH     {r4,lr}
        0x00000224:    2a20         *      CMP      r2,#0x20
        0x00000226:    db04        ..      BLT      0x232 ; __aeabi_llsl + 16
        0x00000228:    4601        .F      MOV      r1,r0
        0x0000022a:    3a20         :      SUBS     r2,r2,#0x20
        0x0000022c:    4091        .@      LSLS     r1,r1,r2
        0x0000022e:    2000        .       MOVS     r0,#0
        0x00000230:    bd10        ..      POP      {r4,pc}
        0x00000232:    4091        .@      LSLS     r1,r1,r2
        0x00000234:    2320         #      MOVS     r3,#0x20
        0x00000236:    1a9c        ..      SUBS     r4,r3,r2
        0x00000238:    4603        .F      MOV      r3,r0
        0x0000023a:    40e3        .@      LSRS     r3,r3,r4
        0x0000023c:    4319        .C      ORRS     r1,r1,r3
        0x0000023e:    4090        .@      LSLS     r0,r0,r2
        0x00000240:    bd10        ..      POP      {r4,pc}
    .text
    __aeabi_llsr
    _ll_ushift_r
        0x00000242:    b510        ..      PUSH     {r4,lr}
        0x00000244:    2a20         *      CMP      r2,#0x20
        0x00000246:    db04        ..      BLT      0x252 ; __aeabi_llsr + 16
        0x00000248:    4608        .F      MOV      r0,r1
        0x0000024a:    3a20         :      SUBS     r2,r2,#0x20
        0x0000024c:    40d0        .@      LSRS     r0,r0,r2
        0x0000024e:    2100        .!      MOVS     r1,#0
        0x00000250:    bd10        ..      POP      {r4,pc}
        0x00000252:    460b        .F      MOV      r3,r1
        0x00000254:    40d3        .@      LSRS     r3,r3,r2
        0x00000256:    40d0        .@      LSRS     r0,r0,r2
        0x00000258:    2420         $      MOVS     r4,#0x20
        0x0000025a:    1aa2        ..      SUBS     r2,r4,r2
        0x0000025c:    4091        .@      LSLS     r1,r1,r2
        0x0000025e:    4308        .C      ORRS     r0,r0,r1
        0x00000260:    4619        .F      MOV      r1,r3
        0x00000262:    bd10        ..      POP      {r4,pc}
    .text
    __aeabi_memcpy
    __aeabi_memcpy4
    __aeabi_memcpy8
        0x00000264:    4603        .F      MOV      r3,r0
        0x00000266:    430b        .C      ORRS     r3,r3,r1
        0x00000268:    079b        ..      LSLS     r3,r3,#30
        0x0000026a:    d003        ..      BEQ      0x274 ; __aeabi_memcpy + 16
        0x0000026c:    e009        ..      B        0x282 ; __aeabi_memcpy + 30
        0x0000026e:    c908        ..      LDM      r1!,{r3}
        0x00000270:    1f12        ..      SUBS     r2,r2,#4
        0x00000272:    c008        ..      STM      r0!,{r3}
        0x00000274:    2a04        .*      CMP      r2,#4
        0x00000276:    d2fa        ..      BCS      0x26e ; __aeabi_memcpy + 10
        0x00000278:    e003        ..      B        0x282 ; __aeabi_memcpy + 30
        0x0000027a:    780b        .x      LDRB     r3,[r1,#0]
        0x0000027c:    7003        .p      STRB     r3,[r0,#0]
        0x0000027e:    1c40        @.      ADDS     r0,r0,#1
        0x00000280:    1c49        I.      ADDS     r1,r1,#1
        0x00000282:    1e52        R.      SUBS     r2,r2,#1
        0x00000284:    d2f9        ..      BCS      0x27a ; __aeabi_memcpy + 22
        0x00000286:    4770        pG      BX       lr
    $t.12
    CLK_GetPCLK0Freq
        0x00000288:    b580        ..      PUSH     {r7,lr}
        0x0000028a:    f000f8a1    ....    BL       SystemCoreClockUpdate ; 0x3d0
        0x0000028e:    4804        .H      LDR      r0,[pc,#16] ; [0x2a0] = 0x40000234
        0x00000290:    6800        .h      LDR      r0,[r0,#0]
        0x00000292:    2107        .!      MOVS     r1,#7
        0x00000294:    4001        .@      ANDS     r1,r1,r0
        0x00000296:    4874        tH      LDR      r0,[pc,#464] ; [0x468] = 0x20000000
        0x00000298:    6800        .h      LDR      r0,[r0,#0]
        0x0000029a:    40c8        .@      LSRS     r0,r0,r1
        0x0000029c:    bd80        ..      POP      {r7,pc}
        0x0000029e:    46c0        .F      MOV      r8,r8
    $d.13
    __arm_cp.7_0
        0x000002a0:    40000234    4..@    DCD    1073742388
    $t.14
    CLK_WaitClockReady
        0x000002a4:    4870        pH      LDR      r0,[pc,#448] ; [0x468] = 0x20000000
        0x000002a6:    6800        .h      LDR      r0,[r0,#0]
        0x000002a8:    0840        @.      LSRS     r0,r0,#1
        0x000002aa:    4903        .I      LDR      r1,[pc,#12] ; [0x2b8] = 0x40000250
        0x000002ac:    680a        .h      LDR      r2,[r1,#0]
        0x000002ae:    06d2        ..      LSLS     r2,r2,#27
        0x000002b0:    d401        ..      BMI      0x2b6 ; CLK_WaitClockReady + 18
        0x000002b2:    1e40        @.      SUBS     r0,r0,#1
        0x000002b4:    d1fa        ..      BNE      0x2ac ; CLK_WaitClockReady + 8
        0x000002b6:    4770        pG      BX       lr
    $d.15
    __arm_cp.8_1
        0x000002b8:    40000250    P..@    DCD    1073742416
    $t.44
    CpuLoadMonitor_Callback
        0x000002bc:    b5f0        ..      PUSH     {r4-r7,lr}
        0x000002be:    b085        ..      SUB      sp,sp,#0x14
        0x000002c0:    4f69        iO      LDR      r7,[pc,#420] ; [0x468] = 0x20000000
        0x000002c2:    69fc        .i      LDR      r4,[r7,#0x1c]
        0x000002c4:    2600        .&      MOVS     r6,#0
        0x000002c6:    61fe        .a      STR      r6,[r7,#0x1c]
        0x000002c8:    6a38        8j      LDR      r0,[r7,#0x20]
        0x000002ca:    2800        .(      CMP      r0,#0
        0x000002cc:    d028        (.      BEQ      0x320 ; CpuLoadMonitor_Callback + 100
        0x000002ce:    6a38        8j      LDR      r0,[r7,#0x20]
        0x000002d0:    4284        .B      CMP      r4,r0
        0x000002d2:    4635        5F      MOV      r5,r6
        0x000002d4:    d208        ..      BCS      0x2e8 ; CpuLoadMonitor_Callback + 44
        0x000002d6:    6a38        8j      LDR      r0,[r7,#0x20]
        0x000002d8:    1b01        ..      SUBS     r1,r0,r4
        0x000002da:    207d        }       MOVS     r0,#0x7d
        0x000002dc:    00c0        ..      LSLS     r0,r0,#3
        0x000002de:    4348        HC      MULS     r0,r1,r0
        0x000002e0:    6a39        9j      LDR      r1,[r7,#0x20]
        0x000002e2:    f7ffff7f    ....    BL       __aeabi_uidiv ; 0x1e4
        0x000002e6:    4605        .F      MOV      r5,r0
        0x000002e8:    627d        }b      STR      r5,[r7,#0x24]
        0x000002ea:    210a        .!      MOVS     r1,#0xa
        0x000002ec:    4628        (F      MOV      r0,r5
        0x000002ee:    f7ffff79    ..y.    BL       __aeabi_uidiv ; 0x1e4
        0x000002f2:    4601        .F      MOV      r1,r0
        0x000002f4:    9404        ..      STR      r4,[sp,#0x10]
        0x000002f6:    6a3c        <j      LDR      r4,[r7,#0x20]
        0x000002f8:    274f        O'      MOVS     r7,#0x4f
        0x000002fa:    4891        .H      LDR      r0,[pc,#580] ; [0x540] = 0x20000030
        0x000002fc:    5dc2        .]      LDRB     r2,[r0,r7]
        0x000002fe:    6883        .h      LDR      r3,[r0,#8]
        0x00000300:    2010        .       MOVS     r0,#0x10
        0x00000302:    9400        ..      STR      r4,[sp,#0]
        0x00000304:    9201        ..      STR      r2,[sp,#4]
        0x00000306:    9002        ..      STR      r0,[sp,#8]
        0x00000308:    9303        ..      STR      r3,[sp,#0xc]
        0x0000030a:    2009        .       MOVS     r0,#9
        0x0000030c:    43c0        .C      MVNS     r0,r0
        0x0000030e:    4348        HC      MULS     r0,r1,r0
        0x00000310:    1942        B.      ADDS     r2,r0,r5
        0x00000312:    4804        .H      LDR      r0,[pc,#16] ; [0x324] = 0x139c
        0x00000314:    9b04        ..      LDR      r3,[sp,#0x10]
        0x00000316:    f000fd55    ..U.    BL       __0printf$8 ; 0xdc4
        0x0000031a:    4889        .H      LDR      r0,[pc,#548] ; [0x540] = 0x20000030
        0x0000031c:    55c6        .U      STRB     r6,[r0,r7]
        0x0000031e:    6086        .`      STR      r6,[r0,#8]
        0x00000320:    b005        ..      ADD      sp,sp,#0x14
        0x00000322:    bdf0        ..      POP      {r4-r7,pc}
    $d.45
    __arm_cp.23_2
        0x00000324:    0000139c    ....    DCD    5020
    $t.20
    Fast1ms_Callback
        0x00000328:    4802        .H      LDR      r0,[pc,#8] ; [0x334] = 0x20000084
        0x0000032a:    6801        .h      LDR      r1,[r0,#0]
        0x0000032c:    1c49        I.      ADDS     r1,r1,#1
        0x0000032e:    6001        .`      STR      r1,[r0,#0]
        0x00000330:    4770        pG      BX       lr
        0x00000332:    46c0        .F      MOV      r8,r8
    $d.21
    __arm_cp.11_0
        0x00000334:    20000084    ...     DCD    536871044
    $t.16
    GPIO_SetMode
        0x00000338:    b570        p.      PUSH     {r4-r6,lr}
        0x0000033a:    2100        .!      MOVS     r1,#0
        0x0000033c:    4a09        .J      LDR      r2,[pc,#36] ; [0x364] = 0x40004040
        0x0000033e:    460b        .F      MOV      r3,r1
        0x00000340:    2b10        .+      CMP      r3,#0x10
        0x00000342:    d00e        ..      BEQ      0x362 ; GPIO_SetMode + 42
        0x00000344:    4604        .F      MOV      r4,r0
        0x00000346:    40dc        .@      LSRS     r4,r4,r3
        0x00000348:    07e4        ..      LSLS     r4,r4,#31
        0x0000034a:    d007        ..      BEQ      0x35c ; GPIO_SetMode + 36
        0x0000034c:    2401        .$      MOVS     r4,#1
        0x0000034e:    408c        .@      LSLS     r4,r4,r1
        0x00000350:    2503        .%      MOVS     r5,#3
        0x00000352:    408d        .@      LSLS     r5,r5,r1
        0x00000354:    6816        .h      LDR      r6,[r2,#0]
        0x00000356:    43ae        .C      BICS     r6,r6,r5
        0x00000358:    4326        &C      ORRS     r6,r6,r4
        0x0000035a:    6016        .`      STR      r6,[r2,#0]
        0x0000035c:    1c89        ..      ADDS     r1,r1,#2
        0x0000035e:    1c5b        [.      ADDS     r3,r3,#1
        0x00000360:    e7ee        ..      B        0x340 ; GPIO_SetMode + 8
        0x00000362:    bd70        p.      POP      {r4-r6,pc}
    $d.17
    __arm_cp.9_0
        0x00000364:    40004040    @@.@    DCD    1073758272
    $t.5
    ProcessHardFault
        0x00000368:    b510        ..      PUSH     {r4,lr}
        0x0000036a:    0743        C.      LSLS     r3,r0,#29
        0x0000036c:    d500        ..      BPL      0x370 ; ProcessHardFault + 8
        0x0000036e:    4611        .F      MOV      r1,r2
        0x00000370:    698a        .i      LDR      r2,[r1,#0x18]
        0x00000372:    8813        ..      LDRH     r3,[r2,#0]
        0x00000374:    4c06        .L      LDR      r4,[pc,#24] ; [0x390] = 0xbeab
        0x00000376:    42a3        .B      CMP      r3,r4
        0x00000378:    d105        ..      BNE      0x386 ; ProcessHardFault + 30
        0x0000037a:    4b0a        .K      LDR      r3,[pc,#40] ; [0x3a4] = 0x2000002c
        0x0000037c:    2400        .$      MOVS     r4,#0
        0x0000037e:    601c        .`      STR      r4,[r3,#0]
        0x00000380:    1c92        ..      ADDS     r2,r2,#2
        0x00000382:    618a        .a      STR      r2,[r1,#0x18]
        0x00000384:    bd10        ..      POP      {r4,pc}
        0x00000386:    a003        ..      ADR      r0,{pc}+0xe ; 0x394
        0x00000388:    f000ff76    ..v.    BL       puts ; 0x1278
        0x0000038c:    e7fe        ..      B        0x38c ; ProcessHardFault + 36
        0x0000038e:    46c0        .F      MOV      r8,r8
    $d.6
    __arm_cp.3_0
        0x00000390:    0000beab    ....    DCD    48811
        0x00000394:    61482020      Ha    DCD    1632116768
        0x00000398:    61466472    rdFa    DCD    1632003186
        0x0000039c:    21746c75    ult!    DCD    561278069
        0x000003a0:    0000000a    ....    DCD    10
    __arm_cp.3_2
        0x000003a4:    2000002c    ,..     DCD    536870956
    $t.4
    SH_Return
        0x000003a8:    2000        .       MOVS     r0,#0
        0x000003aa:    4770        pG      BX       lr
    SYS_UnlockReg
        0x000003ac:    483a        :H      LDR      r0,[pc,#232] ; [0x498] = 0x40000100
        0x000003ae:    2159        Y!      MOVS     r1,#0x59
        0x000003b0:    6001        .`      STR      r1,[r0,#0]
        0x000003b2:    2116        .!      MOVS     r1,#0x16
        0x000003b4:    6001        .`      STR      r1,[r0,#0]
        0x000003b6:    2188        .!      MOVS     r1,#0x88
        0x000003b8:    6001        .`      STR      r1,[r0,#0]
        0x000003ba:    6801        .h      LDR      r1,[r0,#0]
        0x000003bc:    2900        .)      CMP      r1,#0
        0x000003be:    d0f6        ..      BEQ      0x3ae ; SYS_UnlockReg + 2
        0x000003c0:    4770        pG      BX       lr
        0x000003c2:    46c0        .F      MOV      r8,r8
    SysTick_Handler
        0x000003c4:    485e        ^H      LDR      r0,[pc,#376] ; [0x540] = 0x20000030
        0x000003c6:    6801        .h      LDR      r1,[r0,#0]
        0x000003c8:    1c49        I.      ADDS     r1,r1,#1
        0x000003ca:    6001        .`      STR      r1,[r0,#0]
        0x000003cc:    4770        pG      BX       lr
        0x000003ce:    46c0        .F      MOV      r8,r8
    SystemCoreClockUpdate
        0x000003d0:    b5b0        ..      PUSH     {r4,r5,r7,lr}
        0x000003d2:    4c18        .L      LDR      r4,[pc,#96] ; [0x434] = 0x40000210
        0x000003d4:    6820         h      LDR      r0,[r4,#0]
        0x000003d6:    2507        .%      MOVS     r5,#7
        0x000003d8:    4005        .@      ANDS     r5,r5,r0
        0x000003da:    6b21        !k      LDR      r1,[r4,#0x30]
        0x000003dc:    2005        .       MOVS     r0,#5
        0x000003de:    0400        ..      LSLS     r0,r0,#16
        0x000003e0:    4201        .B      TST      r1,r0
        0x000003e2:    d001        ..      BEQ      0x3e8 ; SystemCoreClockUpdate + 24
        0x000003e4:    2000        .       MOVS     r0,#0
        0x000003e6:    e016        ..      B        0x416 ; SystemCoreClockUpdate + 70
        0x000003e8:    0308        ..      LSLS     r0,r1,#12
        0x000003ea:    d501        ..      BPL      0x3f0 ; SystemCoreClockUpdate + 32
        0x000003ec:    4813        .H      LDR      r0,[pc,#76] ; [0x43c] = 0xb71b00
        0x000003ee:    e000        ..      B        0x3f2 ; SystemCoreClockUpdate + 34
        0x000003f0:    4811        .H      LDR      r0,[pc,#68] ; [0x438] = 0x1e84800
        0x000003f2:    038a        ..      LSLS     r2,r1,#14
        0x000003f4:    d40f        ..      BMI      0x416 ; SystemCoreClockUpdate + 70
        0x000003f6:    4a12        .J      LDR      r2,[pc,#72] ; [0x440] = 0x1ff
        0x000003f8:    400a        .@      ANDS     r2,r2,r1
        0x000003fa:    1c92        ..      ADDS     r2,r2,#2
        0x000003fc:    0880        ..      LSRS     r0,r0,#2
        0x000003fe:    4350        PC      MULS     r0,r2,r0
        0x00000400:    040a        ..      LSLS     r2,r1,#16
        0x00000402:    0f92        ..      LSRS     r2,r2,#30
        0x00000404:    4b0f        .K      LDR      r3,[pc,#60] ; [0x444] = 0x12b8
        0x00000406:    5c9a        .\      LDRB     r2,[r3,r2]
        0x00000408:    0489        ..      LSLS     r1,r1,#18
        0x0000040a:    0ec9        ..      LSRS     r1,r1,#27
        0x0000040c:    1c89        ..      ADDS     r1,r1,#2
        0x0000040e:    4351        QC      MULS     r1,r2,r1
        0x00000410:    f7fffee8    ....    BL       __aeabi_uidiv ; 0x1e4
        0x00000414:    0080        ..      LSLS     r0,r0,#2
        0x00000416:    2d02        .-      CMP      r5,#2
        0x00000418:    d002        ..      BEQ      0x420 ; SystemCoreClockUpdate + 80
        0x0000041a:    00a8        ..      LSLS     r0,r5,#2
        0x0000041c:    a10a        ..      ADR      r1,{pc}+0x2c ; 0x448
        0x0000041e:    5808        .X      LDR      r0,[r1,r0]
        0x00000420:    6921        !i      LDR      r1,[r4,#0x10]
        0x00000422:    220f        ."      MOVS     r2,#0xf
        0x00000424:    400a        .@      ANDS     r2,r2,r1
        0x00000426:    1c51        Q.      ADDS     r1,r2,#1
        0x00000428:    f7fffedc    ....    BL       __aeabi_uidiv ; 0x1e4
        0x0000042c:    490e        .I      LDR      r1,[pc,#56] ; [0x468] = 0x20000000
        0x0000042e:    6008        .`      STR      r0,[r1,#0]
        0x00000430:    bdb0        ..      POP      {r4,r5,r7,pc}
        0x00000432:    46c0        .F      MOV      r8,r8
    $d.1
    __arm_cp.0_0
        0x00000434:    40000210    ...@    DCD    1073742352
    __arm_cp.0_1
        0x00000438:    01e84800    .H..    DCD    32000000
    __arm_cp.0_2
        0x0000043c:    00b71b00    ....    DCD    12000000
    __arm_cp.0_3
        0x00000440:    000001ff    ....    DCD    511
    __arm_cp.0_4
        0x00000444:    000012b8    ....    DCD    4792
    gau32ClkSrcTbl
        0x00000448:    01e84800    .H..    DCD    32000000
        0x0000044c:    00008000    ....    DCD    32768
        0x00000450:    05b8d800    ....    DCD    96000000
        0x00000454:    00009600    ....    DCD    38400
        0x00000458:    02dc6c00    .l..    DCD    48000000
        0x0000045c:    00000000    ....    DCD    0
        0x00000460:    00000000    ....    DCD    0
        0x00000464:    02dc6c00    .l..    DCD    48000000
    __arm_cp.0_6
        0x00000468:    20000000    ...     DCD    536870912
    $t.2
    SystemInit
        0x0000046c:    480a        .H      LDR      r0,[pc,#40] ; [0x498] = 0x40000100
        0x0000046e:    2159        Y!      MOVS     r1,#0x59
        0x00000470:    6001        .`      STR      r1,[r0,#0]
        0x00000472:    2116        .!      MOVS     r1,#0x16
        0x00000474:    6001        .`      STR      r1,[r0,#0]
        0x00000476:    2188        .!      MOVS     r1,#0x88
        0x00000478:    6001        .`      STR      r1,[r0,#0]
        0x0000047a:    6801        .h      LDR      r1,[r0,#0]
        0x0000047c:    2900        .)      CMP      r1,#0
        0x0000047e:    d0f6        ..      BEQ      0x46e ; SystemInit + 2
        0x00000480:    2107        .!      MOVS     r1,#7
        0x00000482:    0509        ..      LSLS     r1,r1,#20
        0x00000484:    4a05        .J      LDR      r2,[pc,#20] ; [0x49c] = 0x40000200
        0x00000486:    6813        .h      LDR      r3,[r2,#0]
        0x00000488:    438b        .C      BICS     r3,r3,r1
        0x0000048a:    6013        .`      STR      r3,[r2,#0]
        0x0000048c:    6813        .h      LDR      r3,[r2,#0]
        0x0000048e:    430b        .C      ORRS     r3,r3,r1
        0x00000490:    6013        .`      STR      r3,[r2,#0]
        0x00000492:    2100        .!      MOVS     r1,#0
        0x00000494:    6001        .`      STR      r1,[r0,#0]
        0x00000496:    4770        pG      BX       lr
    $d.3
    __arm_cp.1_0
        0x00000498:    40000100    ...@    DCD    1073742080
    __arm_cp.1_1
        0x0000049c:    40000200    ...@    DCD    1073742336
    $t.30
    TMR1_IRQHandler
        0x000004a0:    b5f8        ..      PUSH     {r3-r7,lr}
        0x000004a2:    4926        &I      LDR      r1,[pc,#152] ; [0x53c] = 0x40050028
        0x000004a4:    6808        .h      LDR      r0,[r1,#0]
        0x000004a6:    07c0        ..      LSLS     r0,r0,#31
        0x000004a8:    d100        ..      BNE      0x4ac ; TMR1_IRQHandler + 12
        0x000004aa:    bdf8        ..      POP      {r3-r7,pc}
        0x000004ac:    2001        .       MOVS     r0,#1
        0x000004ae:    9000        ..      STR      r0,[sp,#0]
        0x000004b0:    6008        .`      STR      r0,[r1,#0]
        0x000004b2:    4923        #I      LDR      r1,[pc,#140] ; [0x540] = 0x20000030
        0x000004b4:    684a        Jh      LDR      r2,[r1,#4]
        0x000004b6:    1c52        R.      ADDS     r2,r2,#1
        0x000004b8:    604a        J`      STR      r2,[r1,#4]
        0x000004ba:    2200        ."      MOVS     r2,#0
        0x000004bc:    4b60        `K      LDR      r3,[pc,#384] ; [0x640] = 0x200000e8
        0x000004be:    4c21        !L      LDR      r4,[pc,#132] ; [0x544] = 0xffff
        0x000004c0:    2a10        .*      CMP      r2,#0x10
        0x000004c2:    d0f2        ..      BEQ      0x4aa ; TMR1_IRQHandler + 10
        0x000004c4:    791d        .y      LDRB     r5,[r3,#4]
        0x000004c6:    2d00        .-      CMP      r5,#0
        0x000004c8:    d035        5.      BEQ      0x536 ; TMR1_IRQHandler + 150
        0x000004ca:    689d        .h      LDR      r5,[r3,#8]
        0x000004cc:    2d00        .-      CMP      r5,#0
        0x000004ce:    d032        2.      BEQ      0x536 ; TMR1_IRQHandler + 150
        0x000004d0:    885d        ].      LDRH     r5,[r3,#2]
        0x000004d2:    42a5        .B      CMP      r5,r4
        0x000004d4:    d002        ..      BEQ      0x4dc ; TMR1_IRQHandler + 60
        0x000004d6:    885d        ].      LDRH     r5,[r3,#2]
        0x000004d8:    1c6d        m.      ADDS     r5,r5,#1
        0x000004da:    805d        ].      STRH     r5,[r3,#2]
        0x000004dc:    885d        ].      LDRH     r5,[r3,#2]
        0x000004de:    881e        ..      LDRH     r6,[r3,#0]
        0x000004e0:    42b5        .B      CMP      r5,r6
        0x000004e2:    d328        (.      BCC      0x536 ; TMR1_IRQHandler + 150
        0x000004e4:    2600        .&      MOVS     r6,#0
        0x000004e6:    805e        ^.      STRH     r6,[r3,#2]
        0x000004e8:    795d        ]y      LDRB     r5,[r3,#5]
        0x000004ea:    2d00        .-      CMP      r5,#0
        0x000004ec:    d007        ..      BEQ      0x4fe ; TMR1_IRQHandler + 94
        0x000004ee:    254e        N%      MOVS     r5,#0x4e
        0x000004f0:    5d4f        O]      LDRB     r7,[r1,r5]
        0x000004f2:    2f10        ./      CMP      r7,#0x10
        0x000004f4:    d309        ..      BCC      0x50a ; TMR1_IRQHandler + 106
        0x000004f6:    688d        .h      LDR      r5,[r1,#8]
        0x000004f8:    1c6d        m.      ADDS     r5,r5,#1
        0x000004fa:    608d        .`      STR      r5,[r1,#8]
        0x000004fc:    e01b        ..      B        0x536 ; TMR1_IRQHandler + 150
        0x000004fe:    799d        .y      LDRB     r5,[r3,#6]
        0x00000500:    2d00        .-      CMP      r5,#0
        0x00000502:    d118        ..      BNE      0x536 ; TMR1_IRQHandler + 150
        0x00000504:    9800        ..      LDR      r0,[sp,#0]
        0x00000506:    7198        .q      STRB     r0,[r3,#6]
        0x00000508:    e015        ..      B        0x536 ; TMR1_IRQHandler + 150
        0x0000050a:    274d        M'      MOVS     r7,#0x4d
        0x0000050c:    5dc8        .]      LDRB     r0,[r1,r7]
        0x0000050e:    0080        ..      LSLS     r0,r0,#2
        0x00000510:    1808        ..      ADDS     r0,r1,r0
        0x00000512:    60c2        .`      STR      r2,[r0,#0xc]
        0x00000514:    5dc8        .]      LDRB     r0,[r1,r7]
        0x00000516:    1c40        @.      ADDS     r0,r0,#1
        0x00000518:    55c8        .U      STRB     r0,[r1,r7]
        0x0000051a:    5dc8        .]      LDRB     r0,[r1,r7]
        0x0000051c:    2810        .(      CMP      r0,#0x10
        0x0000051e:    d300        ..      BCC      0x522 ; TMR1_IRQHandler + 130
        0x00000520:    55ce        .U      STRB     r6,[r1,r7]
        0x00000522:    5d48        H]      LDRB     r0,[r1,r5]
        0x00000524:    1c40        @.      ADDS     r0,r0,#1
        0x00000526:    5548        HU      STRB     r0,[r1,r5]
        0x00000528:    5d48        H]      LDRB     r0,[r1,r5]
        0x0000052a:    264f        O&      MOVS     r6,#0x4f
        0x0000052c:    5d8f        .]      LDRB     r7,[r1,r6]
        0x0000052e:    42b8        .B      CMP      r0,r7
        0x00000530:    d901        ..      BLS      0x536 ; TMR1_IRQHandler + 150
        0x00000532:    5d48        H]      LDRB     r0,[r1,r5]
        0x00000534:    5588        .U      STRB     r0,[r1,r6]
        0x00000536:    3310        .3      ADDS     r3,r3,#0x10
        0x00000538:    1c52        R.      ADDS     r2,r2,#1
        0x0000053a:    e7c1        ..      B        0x4c0 ; TMR1_IRQHandler + 32
    $d.31
    __arm_cp.17_0
        0x0000053c:    40050028    (..@    DCD    1074069544
    __arm_cp.17_1
        0x00000540:    20000030    0..     DCD    536870960
    __arm_cp.17_3
        0x00000544:    0000ffff    ....    DCD    65535
    $t.28
    Task1_Callback
        0x00000548:    b580        ..      PUSH     {r7,lr}
        0x0000054a:    4804        .H      LDR      r0,[pc,#16] ; [0x55c] = 0x20000088
        0x0000054c:    6802        .h      LDR      r2,[r0,#0]
        0x0000054e:    1c51        Q.      ADDS     r1,r2,#1
        0x00000550:    6001        .`      STR      r1,[r0,#0]
        0x00000552:    4803        .H      LDR      r0,[pc,#12] ; [0x560] = 0x12bc
        0x00000554:    a103        ..      ADR      r1,{pc}+0x10 ; 0x564
        0x00000556:    f000fc35    ..5.    BL       __0printf$8 ; 0xdc4
        0x0000055a:    bd80        ..      POP      {r7,pc}
    $d.29
    __arm_cp.16_0
        0x0000055c:    20000088    ...     DCD    536871048
    __arm_cp.16_1
        0x00000560:    000012bc    ....    DCD    4796
        0x00000564:    6b736154    Task    DCD    1802723668
        0x00000568:    61435f31    1_Ca    DCD    1631805233
        0x0000056c:    61626c6c    llba    DCD    1633840236
        0x00000570:    00006b63    ck..    DCD    27491
    $t.26
    Task2_Callback
        0x00000574:    b580        ..      PUSH     {r7,lr}
        0x00000576:    4804        .H      LDR      r0,[pc,#16] ; [0x588] = 0x2000008c
        0x00000578:    6802        .h      LDR      r2,[r0,#0]
        0x0000057a:    1c51        Q.      ADDS     r1,r2,#1
        0x0000057c:    6001        .`      STR      r1,[r0,#0]
        0x0000057e:    a003        ..      ADR      r0,{pc}+0xe ; 0x58c
        0x00000580:    a107        ..      ADR      r1,{pc}+0x20 ; 0x5a0
        0x00000582:    f000fc1f    ....    BL       __0printf$8 ; 0xdc4
        0x00000586:    bd80        ..      POP      {r7,pc}
    $d.27
    __arm_cp.15_0
        0x00000588:    2000008c    ...     DCD    536871052
        0x0000058c:    253a7325    %s:%    DCD    624587557
        0x00000590:    28206434    4d (    DCD    673211444
        0x00000594:    65732032    2 se    DCD    1702043698
        0x00000598:    0a0d2963    c)..    DCD    168634723
        0x0000059c:    00000000    ....    DCD    0
        0x000005a0:    6b736154    Task    DCD    1802723668
        0x000005a4:    61435f32    2_Ca    DCD    1631805234
        0x000005a8:    61626c6c    llba    DCD    1633840236
        0x000005ac:    00006b63    ck..    DCD    27491
    $t.25
    Task3_Callback
        0x000005b0:    4770        pG      BX       lr
    Task4_Callback
        0x000005b2:    4770        pG      BX       lr
    Task5_Callback
        0x000005b4:    b580        ..      PUSH     {r7,lr}
        0x000005b6:    4807        .H      LDR      r0,[pc,#28] ; [0x5d4] = 0x40004878
        0x000005b8:    6801        .h      LDR      r1,[r0,#0]
        0x000005ba:    2201        ."      MOVS     r2,#1
        0x000005bc:    404a        J@      EORS     r2,r2,r1
        0x000005be:    6002        .`      STR      r2,[r0,#0]
        0x000005c0:    4805        .H      LDR      r0,[pc,#20] ; [0x5d8] = 0x20000090
        0x000005c2:    6802        .h      LDR      r2,[r0,#0]
        0x000005c4:    1c51        Q.      ADDS     r1,r2,#1
        0x000005c6:    6001        .`      STR      r1,[r0,#0]
        0x000005c8:    4804        .H      LDR      r0,[pc,#16] ; [0x5dc] = 0x12bc
        0x000005ca:    a105        ..      ADR      r1,{pc}+0x16 ; 0x5e0
        0x000005cc:    f000fbfa    ....    BL       __0printf$8 ; 0xdc4
        0x000005d0:    bd80        ..      POP      {r7,pc}
        0x000005d2:    46c0        .F      MOV      r8,r8
    $d.23
    __arm_cp.12_0
        0x000005d4:    40004878    xH.@    DCD    1073760376
    __arm_cp.12_1
        0x000005d8:    20000090    ...     DCD    536871056
    __arm_cp.12_2
        0x000005dc:    000012bc    ....    DCD    4796
        0x000005e0:    6b736154    Task    DCD    1802723668
        0x000005e4:    61435f35    5_Ca    DCD    1631805237
        0x000005e8:    61626c6c    llba    DCD    1633840236
        0x000005ec:    00006b63    ck..    DCD    27491
    $t.42
    TimerService_CreateTimer
        0x000005f0:    b5b0        ..      PUSH     {r4,r5,r7,lr}
        0x000005f2:    4602        .F      MOV      r2,r0
        0x000005f4:    2400        .$      MOVS     r4,#0
        0x000005f6:    4b12        .K      LDR      r3,[pc,#72] ; [0x640] = 0x200000e8
        0x000005f8:    4620         F      MOV      r0,r4
        0x000005fa:    2810        .(      CMP      r0,#0x10
        0x000005fc:    d005        ..      BEQ      0x60a ; TimerService_CreateTimer + 26
        0x000005fe:    689d        .h      LDR      r5,[r3,#8]
        0x00000600:    2d00        .-      CMP      r5,#0
        0x00000602:    d004        ..      BEQ      0x60e ; TimerService_CreateTimer + 30
        0x00000604:    3310        .3      ADDS     r3,r3,#0x10
        0x00000606:    1c40        @.      ADDS     r0,r0,#1
        0x00000608:    e7f7        ..      B        0x5fa ; TimerService_CreateTimer + 10
        0x0000060a:    43e0        .C      MVNS     r0,r4
        0x0000060c:    bdb0        ..      POP      {r4,r5,r7,pc}
        0x0000060e:    801a        ..      STRH     r2,[r3,#0]
        0x00000610:    2200        ."      MOVS     r2,#0
        0x00000612:    805a        Z.      STRH     r2,[r3,#2]
        0x00000614:    711a        .q      STRB     r2,[r3,#4]
        0x00000616:    2401        .$      MOVS     r4,#1
        0x00000618:    715c        \q      STRB     r4,[r3,#5]
        0x0000061a:    719a        .q      STRB     r2,[r3,#6]
        0x0000061c:    71da        .q      STRB     r2,[r3,#7]
        0x0000061e:    6099        .`      STR      r1,[r3,#8]
        0x00000620:    60da        .`      STR      r2,[r3,#0xc]
        0x00000622:    bdb0        ..      POP      {r4,r5,r7,pc}
    TimerService_StartTimer
        0x00000624:    280f        .(      CMP      r0,#0xf
        0x00000626:    d80a        ..      BHI      0x63e ; TimerService_StartTimer + 26
        0x00000628:    0100        ..      LSLS     r0,r0,#4
        0x0000062a:    4905        .I      LDR      r1,[pc,#20] ; [0x640] = 0x200000e8
        0x0000062c:    1808        ..      ADDS     r0,r1,r0
        0x0000062e:    6881        .h      LDR      r1,[r0,#8]
        0x00000630:    2900        .)      CMP      r1,#0
        0x00000632:    d004        ..      BEQ      0x63e ; TimerService_StartTimer + 26
        0x00000634:    2100        .!      MOVS     r1,#0
        0x00000636:    8041        A.      STRH     r1,[r0,#2]
        0x00000638:    7181        .q      STRB     r1,[r0,#6]
        0x0000063a:    2101        .!      MOVS     r1,#1
        0x0000063c:    7101        .q      STRB     r1,[r0,#4]
        0x0000063e:    4770        pG      BX       lr
    $d.41
    __arm_cp.21_0
        0x00000640:    200000e8    ...     DCD    536871144
    $t.34
    UART02_IRQHandler
        0x00000644:    b5f8        ..      PUSH     {r3-r7,lr}
        0x00000646:    4f19        .O      LDR      r7,[pc,#100] ; [0x6ac] = 0x40070018
        0x00000648:    6878        xh      LDR      r0,[r7,#4]
        0x0000064a:    2111        .!      MOVS     r1,#0x11
        0x0000064c:    0209        ..      LSLS     r1,r1,#8
        0x0000064e:    4208        .B      TST      r0,r1
        0x00000650:    d021        !.      BEQ      0x696 ; UART02_IRQHandler + 82
        0x00000652:    4c17        .L      LDR      r4,[pc,#92] ; [0x6b0] = 0x40000008
        0x00000654:    a517        ..      ADR      r5,{pc}+0x60 ; 0x6b4
        0x00000656:    6838        8h      LDR      r0,[r7,#0]
        0x00000658:    0440        @.      LSLS     r0,r0,#17
        0x0000065a:    d41c        ..      BMI      0x696 ; UART02_IRQHandler + 82
        0x0000065c:    4638        8F      MOV      r0,r7
        0x0000065e:    3818        .8      SUBS     r0,r0,#0x18
        0x00000660:    6800        .h      LDR      r0,[r0,#0]
        0x00000662:    b2c6        ..      UXTB     r6,r0
        0x00000664:    2e80        ..      CMP      r6,#0x80
        0x00000666:    d303        ..      BCC      0x670 ; UART02_IRQHandler + 44
        0x00000668:    a016        ..      ADR      r0,{pc}+0x5c ; 0x6c4
        0x0000066a:    f000fe05    ....    BL       puts ; 0x1278
        0x0000066e:    e7f2        ..      B        0x656 ; UART02_IRQHandler + 18
        0x00000670:    4628        (F      MOV      r0,r5
        0x00000672:    4631        1F      MOV      r1,r6
        0x00000674:    f000fba6    ....    BL       __0printf$8 ; 0xdc4
        0x00000678:    2e58        X.      CMP      r6,#0x58
        0x0000067a:    d005        ..      BEQ      0x688 ; UART02_IRQHandler + 68
        0x0000067c:    2e5a        Z.      CMP      r6,#0x5a
        0x0000067e:    d003        ..      BEQ      0x688 ; UART02_IRQHandler + 68
        0x00000680:    2e7a        z.      CMP      r6,#0x7a
        0x00000682:    d001        ..      BEQ      0x688 ; UART02_IRQHandler + 68
        0x00000684:    2e78        x.      CMP      r6,#0x78
        0x00000686:    d1e6        ..      BNE      0x656 ; UART02_IRQHandler + 18
        0x00000688:    f7fffe90    ....    BL       SYS_UnlockReg ; 0x3ac
        0x0000068c:    6820         h      LDR      r0,[r4,#0]
        0x0000068e:    2101        .!      MOVS     r1,#1
        0x00000690:    4301        .C      ORRS     r1,r1,r0
        0x00000692:    6021        !`      STR      r1,[r4,#0]
        0x00000694:    e7df        ..      B        0x656 ; UART02_IRQHandler + 18
        0x00000696:    6838        8h      LDR      r0,[r7,#0]
        0x00000698:    2171        q!      MOVS     r1,#0x71
        0x0000069a:    4208        .B      TST      r0,r1
        0x0000069c:    d005        ..      BEQ      0x6aa ; UART02_IRQHandler + 102
        0x0000069e:    2070        p       MOVS     r0,#0x70
        0x000006a0:    6038        8`      STR      r0,[r7,#0]
        0x000006a2:    2008        .       MOVS     r0,#8
        0x000006a4:    6038        8`      STR      r0,[r7,#0]
        0x000006a6:    480c        .H      LDR      r0,[pc,#48] ; [0x6d8] = 0x1000001
        0x000006a8:    6038        8`      STR      r0,[r7,#0]
        0x000006aa:    bdf8        ..      POP      {r3-r7,pc}
    $d.35
    __arm_cp.19_0
        0x000006ac:    40070018    ...@    DCD    1074200600
    __arm_cp.19_1
        0x000006b0:    40000008    ...@    DCD    1073741832
        0x000006b4:    73657270    pres    DCD    1936028272
        0x000006b8:    203a2073    s :     DCD    540680307
        0x000006bc:    0a0d6325    %c..    DCD    168649509
        0x000006c0:    00000000    ....    DCD    0
        0x000006c4:    61766e69    inva    DCD    1635151465
        0x000006c8:    2064696c    lid     DCD    543451500
        0x000006cc:    6d6d6f63    comm    DCD    1835888483
        0x000006d0:    0d646e61    and.    DCD    224685665
        0x000006d4:    00000000    ....    DCD    0
    __arm_cp.19_4
        0x000006d8:    01000001    ....    DCD    16777217
    $t.7
    fputc
        0x000006dc:    2101        .!      MOVS     r1,#1
        0x000006de:    05ca        ..      LSLS     r2,r1,#23
        0x000006e0:    4906        .I      LDR      r1,[pc,#24] ; [0x6fc] = 0x40070000
        0x000006e2:    698b        .i      LDR      r3,[r1,#0x18]
        0x000006e4:    4213        .B      TST      r3,r2
        0x000006e6:    d1fc        ..      BNE      0x6e2 ; fputc + 6
        0x000006e8:    b2c3        ..      UXTB     r3,r0
        0x000006ea:    2b0a        .+      CMP      r3,#0xa
        0x000006ec:    d104        ..      BNE      0x6f8 ; fputc + 28
        0x000006ee:    230d        .#      MOVS     r3,#0xd
        0x000006f0:    600b        .`      STR      r3,[r1,#0]
        0x000006f2:    698b        .i      LDR      r3,[r1,#0x18]
        0x000006f4:    4213        .B      TST      r3,r2
        0x000006f6:    d1fc        ..      BNE      0x6f2 ; fputc + 22
        0x000006f8:    6008        .`      STR      r0,[r1,#0]
        0x000006fa:    4770        pG      BX       lr
    $d.8
    __arm_cp.4_0
        0x000006fc:    40070000    ...@    DCD    1074200576
    $t.36
    main
        0x00000700:    b090        ..      SUB      sp,sp,#0x40
        0x00000702:    f7fffe53    ..S.    BL       SYS_UnlockReg ; 0x3ac
        0x00000706:    4cde        .L      LDR      r4,[pc,#888] ; [0xa80] = 0x40000200
        0x00000708:    6820         h      LDR      r0,[r4,#0]
        0x0000070a:    2604        .&      MOVS     r6,#4
        0x0000070c:    4330        0C      ORRS     r0,r0,r6
        0x0000070e:    6020         `      STR      r0,[r4,#0]
        0x00000710:    f7fffdc8    ....    BL       CLK_WaitClockReady ; 0x2a4
        0x00000714:    6d25        %m      LDR      r5,[r4,#0x50]
        0x00000716:    6820         h      LDR      r0,[r4,#0]
        0x00000718:    9602        ..      STR      r6,[sp,#8]
        0x0000071a:    4330        0C      ORRS     r0,r0,r6
        0x0000071c:    6020         `      STR      r0,[r4,#0]
        0x0000071e:    f7fffdc1    ....    BL       CLK_WaitClockReady ; 0x2a4
        0x00000722:    6920         i      LDR      r0,[r4,#0x10]
        0x00000724:    2607        .&      MOVS     r6,#7
        0x00000726:    4330        0C      ORRS     r0,r0,r6
        0x00000728:    6120         a      STR      r0,[r4,#0x10]
        0x0000072a:    6a20         j      LDR      r0,[r4,#0x20]
        0x0000072c:    210f        .!      MOVS     r1,#0xf
        0x0000072e:    9108        ..      STR      r1,[sp,#0x20]
        0x00000730:    4388        .C      BICS     r0,r0,r1
        0x00000732:    6220         b      STR      r0,[r4,#0x20]
        0x00000734:    6920         i      LDR      r0,[r4,#0x10]
        0x00000736:    4330        0C      ORRS     r0,r0,r6
        0x00000738:    6120         a      STR      r0,[r4,#0x10]
        0x0000073a:    f7fffe49    ..I.    BL       SystemCoreClockUpdate ; 0x3d0
        0x0000073e:    06e8        ..      LSLS     r0,r5,#27
        0x00000740:    d403        ..      BMI      0x74a ; main + 74
        0x00000742:    6820         h      LDR      r0,[r4,#0]
        0x00000744:    2104        .!      MOVS     r1,#4
        0x00000746:    4388        .C      BICS     r0,r0,r1
        0x00000748:    6020         `      STR      r0,[r4,#0]
        0x0000074a:    68a0        .h      LDR      r0,[r4,#8]
        0x0000074c:    2108        .!      MOVS     r1,#8
        0x0000074e:    9104        ..      STR      r1,[sp,#0x10]
        0x00000750:    4308        .C      ORRS     r0,r0,r1
        0x00000752:    60a0        .`      STR      r0,[r4,#8]
        0x00000754:    0330        0.      LSLS     r0,r6,#12
        0x00000756:    6961        ai      LDR      r1,[r4,#0x14]
        0x00000758:    4301        .C      ORRS     r1,r1,r0
        0x0000075a:    6161        aa      STR      r1,[r4,#0x14]
        0x0000075c:    48c9        .H      LDR      r0,[pc,#804] ; [0xa84] = 0xffff
        0x0000075e:    1c41        A.      ADDS     r1,r0,#1
        0x00000760:    9109        ..      STR      r1,[sp,#0x24]
        0x00000762:    68a0        .h      LDR      r0,[r4,#8]
        0x00000764:    4308        .C      ORRS     r0,r0,r1
        0x00000766:    60a0        .`      STR      r0,[r4,#8]
        0x00000768:    9d08        ..      LDR      r5,[sp,#0x20]
        0x0000076a:    0228        (.      LSLS     r0,r5,#8
        0x0000076c:    6a21        !j      LDR      r1,[r4,#0x20]
        0x0000076e:    4381        .C      BICS     r1,r1,r0
        0x00000770:    6221        !b      STR      r1,[r4,#0x20]
        0x00000772:    9603        ..      STR      r6,[sp,#0xc]
        0x00000774:    0630        0.      LSLS     r0,r6,#24
        0x00000776:    6961        ai      LDR      r1,[r4,#0x14]
        0x00000778:    4381        .C      BICS     r1,r1,r0
        0x0000077a:    2703        .'      MOVS     r7,#3
        0x0000077c:    0638        8.      LSLS     r0,r7,#24
        0x0000077e:    1808        ..      ADDS     r0,r1,r0
        0x00000780:    6160        `a      STR      r0,[r4,#0x14]
        0x00000782:    20ff        .       MOVS     r0,#0xff
        0x00000784:    0400        ..      LSLS     r0,r0,#16
        0x00000786:    4ec0        .N      LDR      r6,[pc,#768] ; [0xa88] = 0x40000004
        0x00000788:    6bb1        .k      LDR      r1,[r6,#0x38]
        0x0000078a:    4381        .C      BICS     r1,r1,r0
        0x0000078c:    2033        3       MOVS     r0,#0x33
        0x0000078e:    0440        @.      LSLS     r0,r0,#17
        0x00000790:    1808        ..      ADDS     r0,r1,r0
        0x00000792:    63b0        .c      STR      r0,[r6,#0x38]
        0x00000794:    f7fffe1c    ....    BL       SystemCoreClockUpdate ; 0x3d0
        0x00000798:    48bc        .H      LDR      r0,[pc,#752] ; [0xa8c] = 0x40000100
        0x0000079a:    2400        .$      MOVS     r4,#0
        0x0000079c:    6004        .`      STR      r4,[r0,#0]
        0x0000079e:    0628        (.      LSLS     r0,r5,#24
        0x000007a0:    6bb1        .k      LDR      r1,[r6,#0x38]
        0x000007a2:    4381        .C      BICS     r1,r1,r0
        0x000007a4:    63b1        .c      STR      r1,[r6,#0x38]
        0x000007a6:    0728        (.      LSLS     r0,r5,#28
        0x000007a8:    6bb1        .k      LDR      r1,[r6,#0x38]
        0x000007aa:    4381        .C      BICS     r1,r1,r0
        0x000007ac:    63b1        .c      STR      r1,[r6,#0x38]
        0x000007ae:    2501        .%      MOVS     r5,#1
        0x000007b0:    03a8        ..      LSLS     r0,r5,#14
        0x000007b2:    f7fffdc1    ....    BL       GPIO_SetMode ; 0x338
        0x000007b6:    03e8        ..      LSLS     r0,r5,#15
        0x000007b8:    9007        ..      STR      r0,[sp,#0x1c]
        0x000007ba:    f7fffdbd    ....    BL       GPIO_SetMode ; 0x338
        0x000007be:    68b0        .h      LDR      r0,[r6,#8]
        0x000007c0:    9909        ..      LDR      r1,[sp,#0x24]
        0x000007c2:    4308        .C      ORRS     r0,r0,r1
        0x000007c4:    60b0        .`      STR      r0,[r6,#8]
        0x000007c6:    0428        (.      LSLS     r0,r5,#16
        0x000007c8:    68b1        .h      LDR      r1,[r6,#8]
        0x000007ca:    4381        .C      BICS     r1,r1,r0
        0x000007cc:    60b1        .`      STR      r1,[r6,#8]
        0x000007ce:    a80a        ..      ADD      r0,sp,#0x28
        0x000007d0:    a1af        ..      ADR      r1,{pc}+0x2c0 ; 0xa90
        0x000007d2:    2218        ."      MOVS     r2,#0x18
        0x000007d4:    f7fffd46    ..F.    BL       __aeabi_memcpy ; 0x264
        0x000007d8:    49a9        .I      LDR      r1,[pc,#676] ; [0xa80] = 0x40000200
        0x000007da:    6948        Hi      LDR      r0,[r1,#0x14]
        0x000007dc:    6a09        .j      LDR      r1,[r1,#0x20]
        0x000007de:    4eb2        .N      LDR      r6,[pc,#712] ; [0xaa8] = 0x40070004
        0x000007e0:    9401        ..      STR      r4,[sp,#4]
        0x000007e2:    62f4        .b      STR      r4,[r6,#0x2c]
        0x000007e4:    9705        ..      STR      r7,[sp,#0x14]
        0x000007e6:    60b7        .`      STR      r7,[r6,#8]
        0x000007e8:    6872        rh      LDR      r2,[r6,#4]
        0x000007ea:    4bb0        .K      LDR      r3,[pc,#704] ; [0xaac] = 0xfff0ff0f
        0x000007ec:    4013        .@      ANDS     r3,r3,r2
        0x000007ee:    6073        s`      STR      r3,[r6,#4]
        0x000007f0:    9509        ..      STR      r5,[sp,#0x24]
        0x000007f2:    022a        *.      LSLS     r2,r5,#8
        0x000007f4:    9206        ..      STR      r2,[sp,#0x18]
        0x000007f6:    0140        @.      LSLS     r0,r0,#5
        0x000007f8:    0f46        F.      LSRS     r6,r0,#29
        0x000007fa:    0508        ..      LSLS     r0,r1,#20
        0x000007fc:    0f07        ..      LSRS     r7,r0,#28
        0x000007fe:    4aac        .J      LDR      r2,[pc,#688] ; [0xab0] = 0x1e84800
        0x00000800:    2e04        ..      CMP      r6,#4
        0x00000802:    d00b        ..      BEQ      0x81c ; main + 284
        0x00000804:    2e01        ..      CMP      r6,#1
        0x00000806:    4c9e        .L      LDR      r4,[pc,#632] ; [0xa80] = 0x40000200
        0x00000808:    d10d        ..      BNE      0x826 ; main + 294
        0x0000080a:    6c21        !l      LDR      r1,[r4,#0x40]
        0x0000080c:    2005        .       MOVS     r0,#5
        0x0000080e:    0400        ..      LSLS     r0,r0,#16
        0x00000810:    4201        .B      TST      r1,r0
        0x00000812:    d100        ..      BNE      0x816 ; main + 278
        0x00000814:    e25e        ^.      B        0xcd4 ; 0xcd4
        0x00000816:    9d02        ..      LDR      r5,[sp,#8]
        0x00000818:    9801        ..      LDR      r0,[sp,#4]
        0x0000081a:    e002        ..      B        0x822 ; main + 290
        0x0000081c:    2510        .%      MOVS     r5,#0x10
        0x0000081e:    f7fffd33    ..3.    BL       CLK_GetPCLK0Freq ; 0x288
        0x00000822:    a90a        ..      ADD      r1,sp,#0x28
        0x00000824:    5148        HQ      STR      r0,[r1,r5]
        0x00000826:    00b0        ..      LSLS     r0,r6,#2
        0x00000828:    a90a        ..      ADD      r1,sp,#0x28
        0x0000082a:    5808        .X      LDR      r0,[r1,r0]
        0x0000082c:    1c79        y.      ADDS     r1,r7,#1
        0x0000082e:    f7fffcd9    ....    BL       __aeabi_uidiv ; 0x1e4
        0x00000832:    4605        .F      MOV      r5,r0
        0x00000834:    27e1        .'      MOVS     r7,#0xe1
        0x00000836:    0238        8.      LSLS     r0,r7,#8
        0x00000838:    1828        (.      ADDS     r0,r5,r0
        0x0000083a:    027e        ~.      LSLS     r6,r7,#9
        0x0000083c:    4631        1F      MOV      r1,r6
        0x0000083e:    f7fffcd1    ....    BL       __aeabi_uidiv ; 0x1e4
        0x00000842:    1e80        ..      SUBS     r0,r0,#2
        0x00000844:    498f        .I      LDR      r1,[pc,#572] ; [0xa84] = 0xffff
        0x00000846:    4288        .B      CMP      r0,r1
        0x00000848:    d907        ..      BLS      0x85a ; main + 346
        0x0000084a:    0338        8.      LSLS     r0,r7,#12
        0x0000084c:    1828        (.      ADDS     r0,r5,r0
        0x0000084e:    4631        1F      MOV      r1,r6
        0x00000850:    f7fffcc8    ....    BL       __aeabi_uidiv ; 0x1e4
        0x00000854:    0900        ..      LSRS     r0,r0,#4
        0x00000856:    1e80        ..      SUBS     r0,r0,#2
        0x00000858:    e002        ..      B        0x860 ; main + 352
        0x0000085a:    9905        ..      LDR      r1,[sp,#0x14]
        0x0000085c:    0709        ..      LSLS     r1,r1,#28
        0x0000085e:    4308        .C      ORRS     r0,r0,r1
        0x00000860:    4a91        .J      LDR      r2,[pc,#580] ; [0xaa8] = 0x40070004
        0x00000862:    6210        .b      STR      r0,[r2,#0x20]
        0x00000864:    6810        .h      LDR      r0,[r2,#0]
        0x00000866:    2111        .!      MOVS     r1,#0x11
        0x00000868:    4301        .C      ORRS     r1,r1,r0
        0x0000086a:    6011        .`      STR      r1,[r2,#0]
        0x0000086c:    9f09        ..      LDR      r7,[sp,#0x24]
        0x0000086e:    0338        8.      LSLS     r0,r7,#12
        0x00000870:    4990        .I      LDR      r1,[pc,#576] ; [0xab4] = 0xe000e100
        0x00000872:    6008        .`      STR      r0,[r1,#0]
        0x00000874:    4c90        .L      LDR      r4,[pc,#576] ; [0xab8] = 0x3d1
        0x00000876:    47a0        .G      BLX      r4
        0x00000878:    4890        .H      LDR      r0,[pc,#576] ; [0xabc] = 0x20000000
        0x0000087a:    6801        .h      LDR      r1,[r0,#0]
        0x0000087c:    4606        .F      MOV      r6,r0
        0x0000087e:    4890        .H      LDR      r0,[pc,#576] ; [0xac0] = 0x1383
        0x00000880:    4d90        .M      LDR      r5,[pc,#576] ; [0xac4] = 0xdc5
        0x00000882:    47a8        .G      BLX      r5
        0x00000884:    47a0        .G      BLX      r4
        0x00000886:    6831        1h      LDR      r1,[r6,#0]
        0x00000888:    488f        .H      LDR      r0,[pc,#572] ; [0xac8] = 0x136b
        0x0000088a:    47a8        .G      BLX      r5
        0x0000088c:    4e7c        |N      LDR      r6,[pc,#496] ; [0xa80] = 0x40000200
        0x0000088e:    6830        0h      LDR      r0,[r6,#0]
        0x00000890:    4038        8@      ANDS     r0,r0,r7
        0x00000892:    4241        AB      RSBS     r1,r0,#0
        0x00000894:    4886        .H      LDR      r0,[pc,#536] ; [0xab0] = 0x1e84800
        0x00000896:    4001        .@      ANDS     r1,r1,r0
        0x00000898:    a08c        ..      ADR      r0,{pc}+0x234 ; 0xacc
        0x0000089a:    47a8        .G      BLX      r5
        0x0000089c:    6830        0h      LDR      r0,[r6,#0]
        0x0000089e:    0381        ..      LSLS     r1,r0,#14
        0x000008a0:    9807        ..      LDR      r0,[sp,#0x1c]
        0x000008a2:    4001        .@      ANDS     r1,r1,r0
        0x000008a4:    a08f        ..      ADR      r0,{pc}+0x240 ; 0xae4
        0x000008a6:    47a8        .G      BLX      r5
        0x000008a8:    f7fffcee    ....    BL       CLK_GetPCLK0Freq ; 0x288
        0x000008ac:    4601        .F      MOV      r1,r0
        0x000008ae:    a093        ..      ADR      r0,{pc}+0x24e ; 0xafc
        0x000008b0:    47a8        .G      BLX      r5
        0x000008b2:    47a0        .G      BLX      r4
        0x000008b4:    6b70        pk      LDR      r0,[r6,#0x34]
        0x000008b6:    4981        .I      LDR      r1,[pc,#516] ; [0xabc] = 0x20000000
        0x000008b8:    6809        .h      LDR      r1,[r1,#0]
        0x000008ba:    0640        @.      LSLS     r0,r0,#25
        0x000008bc:    0f40        @.      LSRS     r0,r0,#29
        0x000008be:    40c1        .@      LSRS     r1,r1,r0
        0x000008c0:    a095        ..      ADR      r0,{pc}+0x258 ; 0xb18
        0x000008c2:    47a8        .G      BLX      r5
        0x000008c4:    6970        pi      LDR      r0,[r6,#0x14]
        0x000008c6:    0440        @.      LSLS     r0,r0,#17
        0x000008c8:    0f40        @.      LSRS     r0,r0,#29
        0x000008ca:    2802        .(      CMP      r0,#2
        0x000008cc:    d103        ..      BNE      0x8d6 ; main + 470
        0x000008ce:    f7fffcdb    ....    BL       CLK_GetPCLK0Freq ; 0x288
        0x000008d2:    4605        .F      MOV      r5,r0
        0x000008d4:    e002        ..      B        0x8dc ; main + 476
        0x000008d6:    0080        ..      LSLS     r0,r0,#2
        0x000008d8:    4996        .I      LDR      r1,[pc,#600] ; [0xb34] = 0x1298
        0x000008da:    580d        .X      LDR      r5,[r1,r0]
        0x000008dc:    9e06        ..      LDR      r6,[sp,#0x18]
        0x000008de:    9809        ..      LDR      r0,[sp,#0x24]
        0x000008e0:    06c0        ..      LSLS     r0,r0,#27
        0x000008e2:    4c95        .L      LDR      r4,[pc,#596] ; [0xb38] = 0x40050020
        0x000008e4:    6020         `      STR      r0,[r4,#0]
        0x000008e6:    207d        }       MOVS     r0,#0x7d
        0x000008e8:    9002        ..      STR      r0,[sp,#8]
        0x000008ea:    00c1        ..      LSLS     r1,r0,#3
        0x000008ec:    4628        (F      MOV      r0,r5
        0x000008ee:    9107        ..      STR      r1,[sp,#0x1c]
        0x000008f0:    f7fffc78    ..x.    BL       __aeabi_uidiv ; 0x1e4
        0x000008f4:    4991        .I      LDR      r1,[pc,#580] ; [0xb3c] = 0x7d1
        0x000008f6:    428d        .B      CMP      r5,r1
        0x000008f8:    d800        ..      BHI      0x8fc ; main + 508
        0x000008fa:    2002        .       MOVS     r0,#2
        0x000008fc:    6060        ``      STR      r0,[r4,#4]
        0x000008fe:    9f09        ..      LDR      r7,[sp,#0x24]
        0x00000900:    0778        x.      LSLS     r0,r7,#29
        0x00000902:    6821        !h      LDR      r1,[r4,#0]
        0x00000904:    4301        .C      ORRS     r1,r1,r0
        0x00000906:    6021        !`      STR      r1,[r4,#0]
        0x00000908:    0278        x.      LSLS     r0,r7,#9
        0x0000090a:    496a        jI      LDR      r1,[pc,#424] ; [0xab4] = 0xe000e100
        0x0000090c:    6008        .`      STR      r0,[r1,#0]
        0x0000090e:    4a5e        ^J      LDR      r2,[pc,#376] ; [0xa88] = 0x40000004
        0x00000910:    1f10        ..      SUBS     r0,r2,#4
        0x00000912:    6821        !h      LDR      r1,[r4,#0]
        0x00000914:    4301        .C      ORRS     r1,r1,r0
        0x00000916:    6021        !`      STR      r1,[r4,#0]
        0x00000918:    6815        .h      LDR      r5,[r2,#0]
        0x0000091a:    4630        0F      MOV      r0,r6
        0x0000091c:    30ff        .0      ADDS     r0,r0,#0xff
        0x0000091e:    6811        .h      LDR      r1,[r2,#0]
        0x00000920:    4301        .C      ORRS     r1,r1,r0
        0x00000922:    6011        .`      STR      r1,[r2,#0]
        0x00000924:    48fc        .H      LDR      r0,[pc,#1008] ; [0xd18] = 0x12cd
        0x00000926:    4629        )F      MOV      r1,r5
        0x00000928:    f000fa4c    ..L.    BL       __0printf$8 ; 0xdc4
        0x0000092c:    462c        ,F      MOV      r4,r5
        0x0000092e:    403c        <@      ANDS     r4,r4,r7
        0x00000930:    d002        ..      BEQ      0x938 ; main + 568
        0x00000932:    a0fa        ..      ADR      r0,{pc}+0x3ea ; 0xd1c
        0x00000934:    f000fca0    ....    BL       puts ; 0x1278
        0x00000938:    07a8        ..      LSLS     r0,r5,#30
        0x0000093a:    d502        ..      BPL      0x942 ; main + 578
        0x0000093c:    48fc        .H      LDR      r0,[pc,#1008] ; [0xd30] = 0x149c
        0x0000093e:    f000fc9b    ....    BL       puts ; 0x1278
        0x00000942:    0768        h.      LSLS     r0,r5,#29
        0x00000944:    d502        ..      BPL      0x94c ; main + 588
        0x00000946:    48fb        .H      LDR      r0,[pc,#1004] ; [0xd34] = 0x1478
        0x00000948:    f000fc96    ....    BL       puts ; 0x1278
        0x0000094c:    0728        (.      LSLS     r0,r5,#28
        0x0000094e:    d502        ..      BPL      0x956 ; main + 598
        0x00000950:    48f9        .H      LDR      r0,[pc,#996] ; [0xd38] = 0x1466
        0x00000952:    f000fc91    ....    BL       puts ; 0x1278
        0x00000956:    06e8        ..      LSLS     r0,r5,#27
        0x00000958:    d502        ..      BPL      0x960 ; main + 608
        0x0000095a:    48f8        .H      LDR      r0,[pc,#992] ; [0xd3c] = 0x1454
        0x0000095c:    f000fc8c    ....    BL       puts ; 0x1278
        0x00000960:    06a8        ..      LSLS     r0,r5,#26
        0x00000962:    d502        ..      BPL      0x96a ; main + 618
        0x00000964:    48f6        .H      LDR      r0,[pc,#984] ; [0xd40] = 0x13f9
        0x00000966:    f000fc87    ....    BL       puts ; 0x1278
        0x0000096a:    0668        h.      LSLS     r0,r5,#25
        0x0000096c:    d502        ..      BPL      0x974 ; main + 628
        0x0000096e:    48f5        .H      LDR      r0,[pc,#980] ; [0xd44] = 0x140f
        0x00000970:    f000fc82    ....    BL       puts ; 0x1278
        0x00000974:    0628        (.      LSLS     r0,r5,#24
        0x00000976:    d502        ..      BPL      0x97e ; main + 638
        0x00000978:    48f3        .H      LDR      r0,[pc,#972] ; [0xd48] = 0x148a
        0x0000097a:    f000fc7d    ..}.    BL       puts ; 0x1278
        0x0000097e:    4235        5B      TST      r5,r6
        0x00000980:    d002        ..      BEQ      0x988 ; main + 648
        0x00000982:    48f2        .H      LDR      r0,[pc,#968] ; [0xd4c] = 0x14b5
        0x00000984:    f000fc78    ..x.    BL       puts ; 0x1278
        0x00000988:    4630        0F      MOV      r0,r6
        0x0000098a:    30bf        .0      ADDS     r0,r0,#0xbf
        0x0000098c:    4205        .B      TST      r5,r0
        0x0000098e:    d02b        +.      BEQ      0x9e8 ; main + 744
        0x00000990:    2c00        .,      CMP      r4,#0
        0x00000992:    d101        ..      BNE      0x998 ; main + 664
        0x00000994:    2002        .       MOVS     r0,#2
        0x00000996:    9009        ..      STR      r0,[sp,#0x24]
        0x00000998:    4629        )F      MOV      r1,r5
        0x0000099a:    9805        ..      LDR      r0,[sp,#0x14]
        0x0000099c:    4001        .@      ANDS     r1,r1,r0
        0x0000099e:    d101        ..      BNE      0x9a4 ; main + 676
        0x000009a0:    2004        .       MOVS     r0,#4
        0x000009a2:    9009        ..      STR      r0,[sp,#0x24]
        0x000009a4:    462b        +F      MOV      r3,r5
        0x000009a6:    9803        ..      LDR      r0,[sp,#0xc]
        0x000009a8:    4003        .@      ANDS     r3,r3,r0
        0x000009aa:    d001        ..      BEQ      0x9b0 ; main + 688
        0x000009ac:    9809        ..      LDR      r0,[sp,#0x24]
        0x000009ae:    9004        ..      STR      r0,[sp,#0x10]
        0x000009b0:    9808        ..      LDR      r0,[sp,#0x20]
        0x000009b2:    4028        (@      ANDS     r0,r0,r5
        0x000009b4:    9008        ..      STR      r0,[sp,#0x20]
        0x000009b6:    d101        ..      BNE      0x9bc ; main + 700
        0x000009b8:    2010        .       MOVS     r0,#0x10
        0x000009ba:    9004        ..      STR      r0,[sp,#0x10]
        0x000009bc:    221f        ."      MOVS     r2,#0x1f
        0x000009be:    402a        *@      ANDS     r2,r2,r5
        0x000009c0:    d101        ..      BNE      0x9c6 ; main + 710
        0x000009c2:    2020                MOVS     r0,#0x20
        0x000009c4:    9004        ..      STR      r0,[sp,#0x10]
        0x000009c6:    263f        ?&      MOVS     r6,#0x3f
        0x000009c8:    402e        .@      ANDS     r6,r6,r5
        0x000009ca:    d101        ..      BNE      0x9d0 ; main + 720
        0x000009cc:    2080        .       MOVS     r0,#0x80
        0x000009ce:    9004        ..      STR      r0,[sp,#0x10]
        0x000009d0:    20bf        .       MOVS     r0,#0xbf
        0x000009d2:    4005        .@      ANDS     r5,r5,r0
        0x000009d4:    d001        ..      BEQ      0x9da ; main + 730
        0x000009d6:    9804        ..      LDR      r0,[sp,#0x10]
        0x000009d8:    9006        ..      STR      r0,[sp,#0x18]
        0x000009da:    48cb        .H      LDR      r0,[pc,#812] ; [0xd08] = 0x40000004
        0x000009dc:    9f06        ..      LDR      r7,[sp,#0x18]
        0x000009de:    6007        .`      STR      r7,[r0,#0]
        0x000009e0:    2c00        .,      CMP      r4,#0
        0x000009e2:    d003        ..      BEQ      0x9ec ; main + 748
        0x000009e4:    48dc        .H      LDR      r0,[pc,#880] ; [0xd58] = 0x141c
        0x000009e6:    e002        ..      B        0x9ee ; main + 750
        0x000009e8:    48d9        .H      LDR      r0,[pc,#868] ; [0xd50] = 0x142f
        0x000009ea:    e013        ..      B        0xa14 ; main + 788
        0x000009ec:    48d9        .H      LDR      r0,[pc,#868] ; [0xd54] = 0x14ce
        0x000009ee:    2900        .)      CMP      r1,#0
        0x000009f0:    d100        ..      BNE      0x9f4 ; main + 756
        0x000009f2:    48da        .H      LDR      r0,[pc,#872] ; [0xd5c] = 0x151a
        0x000009f4:    2b00        .+      CMP      r3,#0
        0x000009f6:    d100        ..      BNE      0x9fa ; main + 762
        0x000009f8:    48d9        .H      LDR      r0,[pc,#868] ; [0xd60] = 0x1501
        0x000009fa:    9908        ..      LDR      r1,[sp,#0x20]
        0x000009fc:    2900        .)      CMP      r1,#0
        0x000009fe:    d100        ..      BNE      0xa02 ; main + 770
        0x00000a00:    48d8        .H      LDR      r0,[pc,#864] ; [0xd64] = 0x14e8
        0x00000a02:    2a00        .*      CMP      r2,#0
        0x00000a04:    d100        ..      BNE      0xa08 ; main + 776
        0x00000a06:    48d8        .H      LDR      r0,[pc,#864] ; [0xd68] = 0x1533
        0x00000a08:    2e00        ..      CMP      r6,#0
        0x00000a0a:    d100        ..      BNE      0xa0e ; main + 782
        0x00000a0c:    48d7        .H      LDR      r0,[pc,#860] ; [0xd6c] = 0x156f
        0x00000a0e:    2d00        .-      CMP      r5,#0
        0x00000a10:    d100        ..      BNE      0xa14 ; main + 788
        0x00000a12:    48d7        .H      LDR      r0,[pc,#860] ; [0xd70] = 0x154f
        0x00000a14:    f000fc30    ..0.    BL       puts ; 0x1278
        0x00000a18:    4cd6        .L      LDR      r4,[pc,#856] ; [0xd74] = 0x20000030
        0x00000a1a:    2500        .%      MOVS     r5,#0
        0x00000a1c:    6025        %`      STR      r5,[r4,#0]
        0x00000a1e:    48bd        .H      LDR      r0,[pc,#756] ; [0xd14] = 0x20000000
        0x00000a20:    6800        .h      LDR      r0,[r0,#0]
        0x00000a22:    9907        ..      LDR      r1,[sp,#0x1c]
        0x00000a24:    f7fffbde    ....    BL       __aeabi_uidiv ; 0x1e4
        0x00000a28:    1e40        @.      SUBS     r0,r0,#1
        0x00000a2a:    0e01        ..      LSRS     r1,r0,#24
        0x00000a2c:    d003        ..      BEQ      0xa36 ; main + 822
        0x00000a2e:    48e4        .H      LDR      r0,[pc,#912] ; [0xdc0] = 0x1588
        0x00000a30:    f000fc22    ..".    BL       puts ; 0x1278
        0x00000a34:    e7fe        ..      B        0xa34 ; main + 820
        0x00000a36:    49d0        .I      LDR      r1,[pc,#832] ; [0xd78] = 0xffffff
        0x00000a38:    4ad0        .J      LDR      r2,[pc,#832] ; [0xd7c] = 0xe000e010
        0x00000a3a:    6050        P`      STR      r0,[r2,#4]
        0x00000a3c:    48d0        .H      LDR      r0,[pc,#832] ; [0xd80] = 0xe000ed20
        0x00000a3e:    6803        .h      LDR      r3,[r0,#0]
        0x00000a40:    400b        .@      ANDS     r3,r3,r1
        0x00000a42:    9905        ..      LDR      r1,[sp,#0x14]
        0x00000a44:    0789        ..      LSLS     r1,r1,#30
        0x00000a46:    1859        Y.      ADDS     r1,r3,r1
        0x00000a48:    6001        .`      STR      r1,[r0,#0]
        0x00000a4a:    6095        .`      STR      r5,[r2,#8]
        0x00000a4c:    9803        ..      LDR      r0,[sp,#0xc]
        0x00000a4e:    6010        .`      STR      r0,[r2,#0]
        0x00000a50:    264c        L&      MOVS     r6,#0x4c
        0x00000a52:    55a5        .U      STRB     r5,[r4,r6]
        0x00000a54:    204d        M       MOVS     r0,#0x4d
        0x00000a56:    5425        %T      STRB     r5,[r4,r0]
        0x00000a58:    234e        N#      MOVS     r3,#0x4e
        0x00000a5a:    54e5        .T      STRB     r5,[r4,r3]
        0x00000a5c:    2050        P       MOVS     r0,#0x50
        0x00000a5e:    5425        %T      STRB     r5,[r4,r0]
        0x00000a60:    48c8        .H      LDR      r0,[pc,#800] ; [0xd84] = 0x200000e8
        0x00000a62:    2110        .!      MOVS     r1,#0x10
        0x00000a64:    2900        .)      CMP      r1,#0
        0x00000a66:    d06b        k.      BEQ      0xb40 ; 0xb40
        0x00000a68:    8005        ..      STRH     r5,[r0,#0]
        0x00000a6a:    8045        E.      STRH     r5,[r0,#2]
        0x00000a6c:    7105        .q      STRB     r5,[r0,#4]
        0x00000a6e:    2201        ."      MOVS     r2,#1
        0x00000a70:    7142        Bq      STRB     r2,[r0,#5]
        0x00000a72:    7185        .q      STRB     r5,[r0,#6]
        0x00000a74:    71c5        .q      STRB     r5,[r0,#7]
        0x00000a76:    6085        .`      STR      r5,[r0,#8]
        0x00000a78:    60c5        .`      STR      r5,[r0,#0xc]
        0x00000a7a:    1e49        I.      SUBS     r1,r1,#1
        0x00000a7c:    3010        .0      ADDS     r0,r0,#0x10
        0x00000a7e:    e7f1        ..      B        0xa64 ; main + 868
    $d.37
    __arm_cp.20_62
        0x00000a80:    40000200    ...@    DCD    1073742336
    __arm_cp.20_63
        0x00000a84:    0000ffff    ....    DCD    65535
        0x00000a88:    40000004    ...@    DCD    1073741828
    __arm_cp.20_65
        0x00000a8c:    40000100    ...@    DCD    1073742080
        0x00000a90:    01e84800    .H..    DCD    32000000
        0x00000a94:    00000000    ....    DCD    0
        0x00000a98:    00008000    ....    DCD    32768
        0x00000a9c:    02dc6c00    .l..    DCD    48000000
        0x00000aa0:    00000000    ....    DCD    0
        0x00000aa4:    00009600    ....    DCD    38400
    __arm_cp.20_67
        0x00000aa8:    40070004    ...@    DCD    1074200580
    __arm_cp.20_68
        0x00000aac:    fff0ff0f    ....    DCD    4293984015
    __arm_cp.20_69
        0x00000ab0:    01e84800    .H..    DCD    32000000
    __arm_cp.20_70
        0x00000ab4:    e000e100    ....    DCD    3758153984
    __arm_cp.20_71
        0x00000ab8:    000003d1    ....    DCD    977
        0x00000abc:    20000000    ...     DCD    536870912
    __arm_cp.20_73
        0x00000ac0:    00001383    ....    DCD    4995
    __arm_cp.20_74
        0x00000ac4:    00000dc5    ....    DCD    3525
    __arm_cp.20_75
        0x00000ac8:    0000136b    k...    DCD    4971
        0x00000acc:    5f4b4c43    CLK_    DCD    1598770243
        0x00000ad0:    48746547    GetH    DCD    1215587655
        0x00000ad4:    72465458    XTFr    DCD    1917211736
        0x00000ad8:    3a207165    eq :    DCD    975204709
        0x00000adc:    64382520     %8d    DCD    1681401120
        0x00000ae0:    00000a0d    ....    DCD    2573
        0x00000ae4:    5f4b4c43    CLK_    DCD    1598770243
        0x00000ae8:    4c746547    GetL    DCD    1282696519
        0x00000aec:    72465458    XTFr    DCD    1917211736
        0x00000af0:    3a207165    eq :    DCD    975204709
        0x00000af4:    64382520     %8d    DCD    1681401120
        0x00000af8:    00000a0d    ....    DCD    2573
        0x00000afc:    5f4b4c43    CLK_    DCD    1598770243
        0x00000b00:    50746547    GetP    DCD    1349805383
        0x00000b04:    304b4c43    CLK0    DCD    810241091
        0x00000b08:    71657246    Freq    DCD    1902473798
        0x00000b0c:    25203a20     : %    DCD    622869024
        0x00000b10:    0a0d6438    8d..    DCD    168649784
        0x00000b14:    00000000    ....    DCD    0
        0x00000b18:    5f4b4c43    CLK_    DCD    1598770243
        0x00000b1c:    50746547    GetP    DCD    1349805383
        0x00000b20:    314b4c43    CLK1    DCD    827018307
        0x00000b24:    71657246    Freq    DCD    1902473798
        0x00000b28:    25203a20     : %    DCD    622869024
        0x00000b2c:    0a0d6438    8d..    DCD    168649784
        0x00000b30:    00000000    ....    DCD    0
    __arm_cp.20_80
        0x00000b34:    00001298    ....    DCD    4760
    __arm_cp.20_81
        0x00000b38:    40050020     ..@    DCD    1074069536
    __arm_cp.20_82
        0x00000b3c:    000007d1    ....    DCD    2001
    $t.38
        0x00000b40:    9508        ..      STR      r5,[sp,#0x20]
        0x00000b42:    9309        ..      STR      r3,[sp,#0x24]
        0x00000b44:    4990        .I      LDR      r1,[pc,#576] ; [0xd88] = 0x2bd
        0x00000b46:    9f07        ..      LDR      r7,[sp,#0x1c]
        0x00000b48:    4638        8F      MOV      r0,r7
        0x00000b4a:    f7fffd51    ..Q.    BL       TimerService_CreateTimer ; 0x5f0
        0x00000b4e:    4d71        qM      LDR      r5,[pc,#452] ; [0xd14] = 0x20000000
        0x00000b50:    8528        (.      STRH     r0,[r5,#0x28]
        0x00000b52:    8d28        (.      LDRH     r0,[r5,#0x28]
        0x00000b54:    8d28        (.      LDRH     r0,[r5,#0x28]
        0x00000b56:    f7fffd65    ..e.    BL       TimerService_StartTimer ; 0x624
        0x00000b5a:    8d29        ).      LDRH     r1,[r5,#0x28]
        0x00000b5c:    488b        .H      LDR      r0,[pc,#556] ; [0xd8c] = 0x134f
        0x00000b5e:    f000f931    ..1.    BL       __0printf$8 ; 0xdc4
        0x00000b62:    498b        .I      LDR      r1,[pc,#556] ; [0xd90] = 0x549
        0x00000b64:    4638        8F      MOV      r0,r7
        0x00000b66:    f7fffd43    ..C.    BL       TimerService_CreateTimer ; 0x5f0
        0x00000b6a:    6068        h`      STR      r0,[r5,#4]
        0x00000b6c:    2800        .(      CMP      r0,#0
        0x00000b6e:    d406        ..      BMI      0xb7e ; 0xb7e
        0x00000b70:    4607        .F      MOV      r7,r0
        0x00000b72:    f7fffd57    ..W.    BL       TimerService_StartTimer ; 0x624
        0x00000b76:    4887        .H      LDR      r0,[pc,#540] ; [0xd94] = 0x12e5
        0x00000b78:    4639        9F      MOV      r1,r7
        0x00000b7a:    f000f923    ..#.    BL       __0printf$8 ; 0xdc4
        0x00000b7e:    9802        ..      LDR      r0,[sp,#8]
        0x00000b80:    0100        ..      LSLS     r0,r0,#4
        0x00000b82:    4985        .I      LDR      r1,[pc,#532] ; [0xd98] = 0x575
        0x00000b84:    f7fffd34    ..4.    BL       TimerService_CreateTimer ; 0x5f0
        0x00000b88:    4605        .F      MOV      r5,r0
        0x00000b8a:    4862        bH      LDR      r0,[pc,#392] ; [0xd14] = 0x20000000
        0x00000b8c:    6085        .`      STR      r5,[r0,#8]
        0x00000b8e:    2d00        .-      CMP      r5,#0
        0x00000b90:    d406        ..      BMI      0xba0 ; 0xba0
        0x00000b92:    4628        (F      MOV      r0,r5
        0x00000b94:    f7fffd46    ..F.    BL       TimerService_StartTimer ; 0x624
        0x00000b98:    4880        .H      LDR      r0,[pc,#512] ; [0xd9c] = 0x12f5
        0x00000b9a:    4629        )F      MOV      r1,r5
        0x00000b9c:    f000f912    ....    BL       __0printf$8 ; 0xdc4
        0x00000ba0:    2064        d       MOVS     r0,#0x64
        0x00000ba2:    497f        .I      LDR      r1,[pc,#508] ; [0xda0] = 0x5b1
        0x00000ba4:    f7fffd24    ..$.    BL       TimerService_CreateTimer ; 0x5f0
        0x00000ba8:    4601        .F      MOV      r1,r0
        0x00000baa:    485a        ZH      LDR      r0,[pc,#360] ; [0xd14] = 0x20000000
        0x00000bac:    60c1        .`      STR      r1,[r0,#0xc]
        0x00000bae:    2900        .)      CMP      r1,#0
        0x00000bb0:    9f09        ..      LDR      r7,[sp,#0x24]
        0x00000bb2:    9d08        ..      LDR      r5,[sp,#0x20]
        0x00000bb4:    d407        ..      BMI      0xbc6 ; 0xbc6
        0x00000bb6:    4608        .F      MOV      r0,r1
        0x00000bb8:    9106        ..      STR      r1,[sp,#0x18]
        0x00000bba:    f7fffd33    ..3.    BL       TimerService_StartTimer ; 0x624
        0x00000bbe:    4879        yH      LDR      r0,[pc,#484] ; [0xda4] = 0x1305
        0x00000bc0:    9906        ..      LDR      r1,[sp,#0x18]
        0x00000bc2:    f000f8ff    ....    BL       __0printf$8 ; 0xdc4
        0x00000bc6:    20fa        .       MOVS     r0,#0xfa
        0x00000bc8:    4977        wI      LDR      r1,[pc,#476] ; [0xda8] = 0x5b3
        0x00000bca:    f7fffd11    ....    BL       TimerService_CreateTimer ; 0x5f0
        0x00000bce:    4601        .F      MOV      r1,r0
        0x00000bd0:    4850        PH      LDR      r0,[pc,#320] ; [0xd14] = 0x20000000
        0x00000bd2:    6101        .a      STR      r1,[r0,#0x10]
        0x00000bd4:    2900        .)      CMP      r1,#0
        0x00000bd6:    d407        ..      BMI      0xbe8 ; 0xbe8
        0x00000bd8:    4608        .F      MOV      r0,r1
        0x00000bda:    9106        ..      STR      r1,[sp,#0x18]
        0x00000bdc:    f7fffd22    ..".    BL       TimerService_StartTimer ; 0x624
        0x00000be0:    4872        rH      LDR      r0,[pc,#456] ; [0xdac] = 0x1315
        0x00000be2:    9906        ..      LDR      r1,[sp,#0x18]
        0x00000be4:    f000f8ee    ....    BL       __0printf$8 ; 0xdc4
        0x00000be8:    4971        qI      LDR      r1,[pc,#452] ; [0xdb0] = 0x5b5
        0x00000bea:    9807        ..      LDR      r0,[sp,#0x1c]
        0x00000bec:    f7fffd00    ....    BL       TimerService_CreateTimer ; 0x5f0
        0x00000bf0:    4601        .F      MOV      r1,r0
        0x00000bf2:    4848        HH      LDR      r0,[pc,#288] ; [0xd14] = 0x20000000
        0x00000bf4:    6141        Aa      STR      r1,[r0,#0x14]
        0x00000bf6:    2900        .)      CMP      r1,#0
        0x00000bf8:    d407        ..      BMI      0xc0a ; 0xc0a
        0x00000bfa:    4608        .F      MOV      r0,r1
        0x00000bfc:    9107        ..      STR      r1,[sp,#0x1c]
        0x00000bfe:    f7fffd11    ....    BL       TimerService_StartTimer ; 0x624
        0x00000c02:    486c        lH      LDR      r0,[pc,#432] ; [0xdb4] = 0x1325
        0x00000c04:    9907        ..      LDR      r1,[sp,#0x1c]
        0x00000c06:    f000f8dd    ....    BL       __0printf$8 ; 0xdc4
        0x00000c0a:    4b5e        ^K      LDR      r3,[pc,#376] ; [0xd84] = 0x200000e8
        0x00000c0c:    2d10        .-      CMP      r5,#0x10
        0x00000c0e:    d005        ..      BEQ      0xc1c ; 0xc1c
        0x00000c10:    6899        .h      LDR      r1,[r3,#8]
        0x00000c12:    2900        .)      CMP      r1,#0
        0x00000c14:    d007        ..      BEQ      0xc26 ; 0xc26
        0x00000c16:    3310        .3      ADDS     r3,r3,#0x10
        0x00000c18:    1c6d        m.      ADDS     r5,r5,#1
        0x00000c1a:    e7f7        ..      B        0xc0c ; 0xc0c
        0x00000c1c:    2000        .       MOVS     r0,#0
        0x00000c1e:    43c0        .C      MVNS     r0,r0
        0x00000c20:    493c        <I      LDR      r1,[pc,#240] ; [0xd14] = 0x20000000
        0x00000c22:    6188        .a      STR      r0,[r1,#0x18]
        0x00000c24:    e014        ..      B        0xc50 ; 0xc50
        0x00000c26:    2101        .!      MOVS     r1,#1
        0x00000c28:    8019        ..      STRH     r1,[r3,#0]
        0x00000c2a:    2100        .!      MOVS     r1,#0
        0x00000c2c:    8059        Y.      STRH     r1,[r3,#2]
        0x00000c2e:    7119        .q      STRB     r1,[r3,#4]
        0x00000c30:    7159        Yq      STRB     r1,[r3,#5]
        0x00000c32:    7199        .q      STRB     r1,[r3,#6]
        0x00000c34:    71d9        .q      STRB     r1,[r3,#7]
        0x00000c36:    4a60        `J      LDR      r2,[pc,#384] ; [0xdb8] = 0x329
        0x00000c38:    609a        .`      STR      r2,[r3,#8]
        0x00000c3a:    4a36        6J      LDR      r2,[pc,#216] ; [0xd14] = 0x20000000
        0x00000c3c:    4628        (F      MOV      r0,r5
        0x00000c3e:    4615        .F      MOV      r5,r2
        0x00000c40:    6190        .a      STR      r0,[r2,#0x18]
        0x00000c42:    60d9        .`      STR      r1,[r3,#0xc]
        0x00000c44:    f7fffcee    ....    BL       TimerService_StartTimer ; 0x624
        0x00000c48:    69a9        .i      LDR      r1,[r5,#0x18]
        0x00000c4a:    485c        \H      LDR      r0,[pc,#368] ; [0xdbc] = 0x1335
        0x00000c4c:    f000f8ba    ....    BL       __0printf$8 ; 0xdc4
        0x00000c50:    5de0        .]      LDRB     r0,[r4,r7]
        0x00000c52:    2800        .(      CMP      r0,#0
        0x00000c54:    d019        ..      BEQ      0xc8a ; 0xc8a
        0x00000c56:    5da0        .]      LDRB     r0,[r4,r6]
        0x00000c58:    0080        ..      LSLS     r0,r0,#2
        0x00000c5a:    1820         .      ADDS     r0,r4,r0
        0x00000c5c:    68c0        .h      LDR      r0,[r0,#0xc]
        0x00000c5e:    5da1        .]      LDRB     r1,[r4,r6]
        0x00000c60:    1c49        I.      ADDS     r1,r1,#1
        0x00000c62:    55a1        .U      STRB     r1,[r4,r6]
        0x00000c64:    5da1        .]      LDRB     r1,[r4,r6]
        0x00000c66:    2910        .)      CMP      r1,#0x10
        0x00000c68:    d301        ..      BCC      0xc6e ; 0xc6e
        0x00000c6a:    2100        .!      MOVS     r1,#0
        0x00000c6c:    55a1        .U      STRB     r1,[r4,r6]
        0x00000c6e:    5de1        .]      LDRB     r1,[r4,r7]
        0x00000c70:    1e49        I.      SUBS     r1,r1,#1
        0x00000c72:    55e1        .U      STRB     r1,[r4,r7]
        0x00000c74:    280f        .(      CMP      r0,#0xf
        0x00000c76:    d8eb        ..      BHI      0xc50 ; 0xc50
        0x00000c78:    0100        ..      LSLS     r0,r0,#4
        0x00000c7a:    4942        BI      LDR      r1,[pc,#264] ; [0xd84] = 0x200000e8
        0x00000c7c:    1808        ..      ADDS     r0,r1,r0
        0x00000c7e:    6881        .h      LDR      r1,[r0,#8]
        0x00000c80:    68c0        .h      LDR      r0,[r0,#0xc]
        0x00000c82:    2900        .)      CMP      r1,#0
        0x00000c84:    d0e4        ..      BEQ      0xc50 ; 0xc50
        0x00000c86:    4788        .G      BLX      r1
        0x00000c88:    e7e2        ..      B        0xc50 ; 0xc50
        0x00000c8a:    4f3e        >O      LDR      r7,[pc,#248] ; [0xd84] = 0x200000e8
        0x00000c8c:    370c        .7      ADDS     r7,r7,#0xc
        0x00000c8e:    2510        .%      MOVS     r5,#0x10
        0x00000c90:    2d00        .-      CMP      r5,#0
        0x00000c92:    d019        ..      BEQ      0xcc8 ; 0xcc8
        0x00000c94:    1ff8        ..      SUBS     r0,r7,#7
        0x00000c96:    7800        .x      LDRB     r0,[r0,#0]
        0x00000c98:    2800        .(      CMP      r0,#0
        0x00000c9a:    d002        ..      BEQ      0xca2 ; 0xca2
        0x00000c9c:    1e6d        m.      SUBS     r5,r5,#1
        0x00000c9e:    3710        .7      ADDS     r7,r7,#0x10
        0x00000ca0:    e7f6        ..      B        0xc90 ; 0xc90
        0x00000ca2:    4638        8F      MOV      r0,r7
        0x00000ca4:    3808        .8      SUBS     r0,r0,#8
        0x00000ca6:    7800        .x      LDRB     r0,[r0,#0]
        0x00000ca8:    2800        .(      CMP      r0,#0
        0x00000caa:    d0f7        ..      BEQ      0xc9c ; 0xc9c
        0x00000cac:    1f38        8.      SUBS     r0,r7,#4
        0x00000cae:    6801        .h      LDR      r1,[r0,#0]
        0x00000cb0:    2900        .)      CMP      r1,#0
        0x00000cb2:    d0f3        ..      BEQ      0xc9c ; 0xc9c
        0x00000cb4:    1fb9        ..      SUBS     r1,r7,#6
        0x00000cb6:    780a        .x      LDRB     r2,[r1,#0]
        0x00000cb8:    2a00        .*      CMP      r2,#0
        0x00000cba:    d0ef        ..      BEQ      0xc9c ; 0xc9c
        0x00000cbc:    2200        ."      MOVS     r2,#0
        0x00000cbe:    700a        .p      STRB     r2,[r1,#0]
        0x00000cc0:    6801        .h      LDR      r1,[r0,#0]
        0x00000cc2:    6838        8h      LDR      r0,[r7,#0]
        0x00000cc4:    4788        .G      BLX      r1
        0x00000cc6:    e7e9        ..      B        0xc9c ; 0xc9c
        0x00000cc8:    4912        .I      LDR      r1,[pc,#72] ; [0xd14] = 0x20000000
        0x00000cca:    69c8        .i      LDR      r0,[r1,#0x1c]
        0x00000ccc:    1c40        @.      ADDS     r0,r0,#1
        0x00000cce:    61c8        .a      STR      r0,[r1,#0x1c]
        0x00000cd0:    9f09        ..      LDR      r7,[sp,#0x24]
        0x00000cd2:    e7bd        ..      B        0xc50 ; 0xc50
        0x00000cd4:    0308        ..      LSLS     r0,r1,#12
        0x00000cd6:    4610        .F      MOV      r0,r2
        0x00000cd8:    9d02        ..      LDR      r5,[sp,#8]
        0x00000cda:    d500        ..      BPL      0xcde ; 0xcde
        0x00000cdc:    480b        .H      LDR      r0,[pc,#44] ; [0xd0c] = 0xb71b00
        0x00000cde:    038a        ..      LSLS     r2,r1,#14
        0x00000ce0:    d500        ..      BPL      0xce4 ; 0xce4
        0x00000ce2:    e59e        ..      B        0x822 ; main + 290
        0x00000ce4:    9a06        ..      LDR      r2,[sp,#0x18]
        0x00000ce6:    32ff        .2      ADDS     r2,r2,#0xff
        0x00000ce8:    400a        .@      ANDS     r2,r2,r1
        0x00000cea:    1c92        ..      ADDS     r2,r2,#2
        0x00000cec:    0880        ..      LSRS     r0,r0,#2
        0x00000cee:    4350        PC      MULS     r0,r2,r0
        0x00000cf0:    040a        ..      LSLS     r2,r1,#16
        0x00000cf2:    0f92        ..      LSRS     r2,r2,#30
        0x00000cf4:    4b06        .K      LDR      r3,[pc,#24] ; [0xd10] = 0x12b8
        0x00000cf6:    5c9a        .\      LDRB     r2,[r3,r2]
        0x00000cf8:    0489        ..      LSLS     r1,r1,#18
        0x00000cfa:    0ec9        ..      LSRS     r1,r1,#27
        0x00000cfc:    1c89        ..      ADDS     r1,r1,#2
        0x00000cfe:    4351        QC      MULS     r1,r2,r1
        0x00000d00:    f7fffa70    ..p.    BL       __aeabi_uidiv ; 0x1e4
        0x00000d04:    0080        ..      LSLS     r0,r0,#2
        0x00000d06:    e58c        ..      B        0x822 ; main + 290
    $d.39
    __arm_cp.20_2
        0x00000d08:    40000004    ...@    DCD    1073741828
    __arm_cp.20_8
        0x00000d0c:    00b71b00    ....    DCD    12000000
    __arm_cp.20_9
        0x00000d10:    000012b8    ....    DCD    4792
    __arm_cp.20_12
        0x00000d14:    20000000    ...     DCD    536870912
    __arm_cp.20_23
        0x00000d18:    000012cd    ....    DCD    4813
        0x00000d1c:    4f502930    0)PO    DCD    1330653488
        0x00000d20:    65522052    R Re    DCD    1699881042
        0x00000d24:    20746573    set     DCD    544499059
        0x00000d28:    67616c46    Flag    DCD    1734437958
        0x00000d2c:    0000000d    ....    DCD    13
    __arm_cp.20_25
        0x00000d30:    0000149c    ....    DCD    5276
    __arm_cp.20_26
        0x00000d34:    00001478    x...    DCD    5240
    __arm_cp.20_27
        0x00000d38:    00001466    f...    DCD    5222
    __arm_cp.20_28
        0x00000d3c:    00001454    T...    DCD    5204
    __arm_cp.20_29
        0x00000d40:    000013f9    ....    DCD    5113
    __arm_cp.20_30
        0x00000d44:    0000140f    ....    DCD    5135
    __arm_cp.20_31
        0x00000d48:    0000148a    ....    DCD    5258
    __arm_cp.20_32
        0x00000d4c:    000014b5    ....    DCD    5301
    __arm_cp.20_33
        0x00000d50:    0000142f    /...    DCD    5167
    __arm_cp.20_34
        0x00000d54:    000014ce    ....    DCD    5326
    __arm_cp.20_35
        0x00000d58:    0000141c    ....    DCD    5148
    __arm_cp.20_36
        0x00000d5c:    0000151a    ....    DCD    5402
    __arm_cp.20_37
        0x00000d60:    00001501    ....    DCD    5377
    __arm_cp.20_38
        0x00000d64:    000014e8    ....    DCD    5352
    __arm_cp.20_39
        0x00000d68:    00001533    3...    DCD    5427
    __arm_cp.20_40
        0x00000d6c:    0000156f    o...    DCD    5487
    __arm_cp.20_41
        0x00000d70:    0000154f    O...    DCD    5455
    __arm_cp.20_42
        0x00000d74:    20000030    0..     DCD    536870960
    __arm_cp.20_43
        0x00000d78:    00ffffff    ....    DCD    16777215
    __arm_cp.20_44
        0x00000d7c:    e000e010    ....    DCD    3758153744
    __arm_cp.20_45
        0x00000d80:    e000ed20     ...    DCD    3758157088
    __arm_cp.20_46
        0x00000d84:    200000e8    ...     DCD    536871144
    __arm_cp.20_47
        0x00000d88:    000002bd    ....    DCD    701
    __arm_cp.20_48
        0x00000d8c:    0000134f    O...    DCD    4943
    __arm_cp.20_49
        0x00000d90:    00000549    I...    DCD    1353
    __arm_cp.20_50
        0x00000d94:    000012e5    ....    DCD    4837
    __arm_cp.20_51
        0x00000d98:    00000575    u...    DCD    1397
    __arm_cp.20_52
        0x00000d9c:    000012f5    ....    DCD    4853
    __arm_cp.20_53
        0x00000da0:    000005b1    ....    DCD    1457
    __arm_cp.20_54
        0x00000da4:    00001305    ....    DCD    4869
    __arm_cp.20_55
        0x00000da8:    000005b3    ....    DCD    1459
    __arm_cp.20_56
        0x00000dac:    00001315    ....    DCD    4885
    __arm_cp.20_57
        0x00000db0:    000005b5    ....    DCD    1461
    __arm_cp.20_58
        0x00000db4:    00001325    %...    DCD    4901
    __arm_cp.20_59
        0x00000db8:    00000329    )...    DCD    809
    __arm_cp.20_60
        0x00000dbc:    00001335    5...    DCD    4917
    __arm_cp.20_61
        0x00000dc0:    00001588    ....    DCD    5512
    $t
    i.__0printf$8
    __0printf$8
    __1printf$8
    __2printf
        0x00000dc4:    b40f        ..      PUSH     {r0-r3}
        0x00000dc6:    b510        ..      PUSH     {r4,lr}
        0x00000dc8:    a903        ..      ADD      r1,sp,#0xc
        0x00000dca:    4b04        .K      LDR      r3,[pc,#16] ; [0xddc] = 0x6dd
        0x00000dcc:    4a04        .J      LDR      r2,[pc,#16] ; [0xde0] = 0x20000094
        0x00000dce:    9802        ..      LDR      r0,[sp,#8]
        0x00000dd0:    f000f818    ....    BL       _printf_core ; 0xe04
        0x00000dd4:    bc10        ..      POP      {r4}
        0x00000dd6:    bc08        ..      POP      {r3}
        0x00000dd8:    b004        ..      ADD      sp,sp,#0x10
        0x00000dda:    4718        .G      BX       r3
    $d
        0x00000ddc:    000006dd    ....    DCD    1757
        0x00000de0:    20000094    ...     DCD    536871060
    $t
    i.__scatterload_copy
    __scatterload_copy
        0x00000de4:    e002        ..      B        0xdec ; __scatterload_copy + 8
        0x00000de6:    c808        ..      LDM      r0!,{r3}
        0x00000de8:    1f12        ..      SUBS     r2,r2,#4
        0x00000dea:    c108        ..      STM      r1!,{r3}
        0x00000dec:    2a00        .*      CMP      r2,#0
        0x00000dee:    d1fa        ..      BNE      0xde6 ; __scatterload_copy + 2
        0x00000df0:    4770        pG      BX       lr
    i.__scatterload_null
    __scatterload_null
        0x00000df2:    4770        pG      BX       lr
    i.__scatterload_zeroinit
    __scatterload_zeroinit
        0x00000df4:    2000        .       MOVS     r0,#0
        0x00000df6:    e001        ..      B        0xdfc ; __scatterload_zeroinit + 8
        0x00000df8:    c101        ..      STM      r1!,{r0}
        0x00000dfa:    1f12        ..      SUBS     r2,r2,#4
        0x00000dfc:    2a00        .*      CMP      r2,#0
        0x00000dfe:    d1fb        ..      BNE      0xdf8 ; __scatterload_zeroinit + 4
        0x00000e00:    4770        pG      BX       lr
        0x00000e02:    0000        ..      MOVS     r0,r0
    i._printf_core
    _printf_core
        0x00000e04:    b5ff        ..      PUSH     {r0-r7,lr}
        0x00000e06:    b091        ..      SUB      sp,sp,#0x44
        0x00000e08:    460f        .F      MOV      r7,r1
        0x00000e0a:    4605        .F      MOV      r5,r0
        0x00000e0c:    2600        .&      MOVS     r6,#0
        0x00000e0e:    e006        ..      B        0xe1e ; _printf_core + 26
        0x00000e10:    2825        %(      CMP      r0,#0x25
        0x00000e12:    d00a        ..      BEQ      0xe2a ; _printf_core + 38
        0x00000e14:    9a14        ..      LDR      r2,[sp,#0x50]
        0x00000e16:    9913        ..      LDR      r1,[sp,#0x4c]
        0x00000e18:    4790        .G      BLX      r2
        0x00000e1a:    1c6d        m.      ADDS     r5,r5,#1
        0x00000e1c:    1c76        v.      ADDS     r6,r6,#1
        0x00000e1e:    7828        (x      LDRB     r0,[r5,#0]
        0x00000e20:    2800        .(      CMP      r0,#0
        0x00000e22:    d1f5        ..      BNE      0xe10 ; _printf_core + 12
        0x00000e24:    4630        0F      MOV      r0,r6
        0x00000e26:    b015        ..      ADD      sp,sp,#0x54
        0x00000e28:    bdf0        ..      POP      {r4-r7,pc}
        0x00000e2a:    2400        .$      MOVS     r4,#0
        0x00000e2c:    9400        ..      STR      r4,[sp,#0]
        0x00000e2e:    2101        .!      MOVS     r1,#1
        0x00000e30:    4af3        .J      LDR      r2,[pc,#972] ; [0x1200] = 0x12809
        0x00000e32:    9402        ..      STR      r4,[sp,#8]
        0x00000e34:    e000        ..      B        0xe38 ; _printf_core + 52
        0x00000e36:    4304        .C      ORRS     r4,r4,r0
        0x00000e38:    1c6d        m.      ADDS     r5,r5,#1
        0x00000e3a:    782b        +x      LDRB     r3,[r5,#0]
        0x00000e3c:    4608        .F      MOV      r0,r1
        0x00000e3e:    3b20         ;      SUBS     r3,r3,#0x20
        0x00000e40:    4098        .@      LSLS     r0,r0,r3
        0x00000e42:    4210        .B      TST      r0,r2
        0x00000e44:    d1f7        ..      BNE      0xe36 ; _printf_core + 50
        0x00000e46:    7828        (x      LDRB     r0,[r5,#0]
        0x00000e48:    282a        *(      CMP      r0,#0x2a
        0x00000e4a:    d00e        ..      BEQ      0xe6a ; _printf_core + 102
        0x00000e4c:    2102        .!      MOVS     r1,#2
        0x00000e4e:    7828        (x      LDRB     r0,[r5,#0]
        0x00000e50:    4602        .F      MOV      r2,r0
        0x00000e52:    3a30        0:      SUBS     r2,r2,#0x30
        0x00000e54:    2a09        .*      CMP      r2,#9
        0x00000e56:    d815        ..      BHI      0xe84 ; _printf_core + 128
        0x00000e58:    9a00        ..      LDR      r2,[sp,#0]
        0x00000e5a:    230a        .#      MOVS     r3,#0xa
        0x00000e5c:    435a        ZC      MULS     r2,r3,r2
        0x00000e5e:    3a30        0:      SUBS     r2,r2,#0x30
        0x00000e60:    1880        ..      ADDS     r0,r0,r2
        0x00000e62:    430c        .C      ORRS     r4,r4,r1
        0x00000e64:    1c6d        m.      ADDS     r5,r5,#1
        0x00000e66:    9000        ..      STR      r0,[sp,#0]
        0x00000e68:    e7f1        ..      B        0xe4e ; _printf_core + 74
        0x00000e6a:    cf01        ..      LDM      r7!,{r0}
        0x00000e6c:    9000        ..      STR      r0,[sp,#0]
        0x00000e6e:    2800        .(      CMP      r0,#0
        0x00000e70:    da05        ..      BGE      0xe7e ; _printf_core + 122
        0x00000e72:    2001        .       MOVS     r0,#1
        0x00000e74:    0340        @.      LSLS     r0,r0,#13
        0x00000e76:    4304        .C      ORRS     r4,r4,r0
        0x00000e78:    9800        ..      LDR      r0,[sp,#0]
        0x00000e7a:    4240        @B      RSBS     r0,r0,#0
        0x00000e7c:    9000        ..      STR      r0,[sp,#0]
        0x00000e7e:    2002        .       MOVS     r0,#2
        0x00000e80:    4304        .C      ORRS     r4,r4,r0
        0x00000e82:    1c6d        m.      ADDS     r5,r5,#1
        0x00000e84:    7828        (x      LDRB     r0,[r5,#0]
        0x00000e86:    282e        .(      CMP      r0,#0x2e
        0x00000e88:    d115        ..      BNE      0xeb6 ; _printf_core + 178
        0x00000e8a:    2004        .       MOVS     r0,#4
        0x00000e8c:    4304        .C      ORRS     r4,r4,r0
        0x00000e8e:    7868        hx      LDRB     r0,[r5,#1]
        0x00000e90:    1c6d        m.      ADDS     r5,r5,#1
        0x00000e92:    282a        *(      CMP      r0,#0x2a
        0x00000e94:    d10a        ..      BNE      0xeac ; _printf_core + 168
        0x00000e96:    cf01        ..      LDM      r7!,{r0}
        0x00000e98:    1c6d        m.      ADDS     r5,r5,#1
        0x00000e9a:    9002        ..      STR      r0,[sp,#8]
        0x00000e9c:    e00b        ..      B        0xeb6 ; _printf_core + 178
        0x00000e9e:    9902        ..      LDR      r1,[sp,#8]
        0x00000ea0:    220a        ."      MOVS     r2,#0xa
        0x00000ea2:    4351        QC      MULS     r1,r2,r1
        0x00000ea4:    3930        09      SUBS     r1,r1,#0x30
        0x00000ea6:    1840        @.      ADDS     r0,r0,r1
        0x00000ea8:    1c6d        m.      ADDS     r5,r5,#1
        0x00000eaa:    9002        ..      STR      r0,[sp,#8]
        0x00000eac:    7828        (x      LDRB     r0,[r5,#0]
        0x00000eae:    4601        .F      MOV      r1,r0
        0x00000eb0:    3930        09      SUBS     r1,r1,#0x30
        0x00000eb2:    2909        .)      CMP      r1,#9
        0x00000eb4:    d9f3        ..      BLS      0xe9e ; _printf_core + 154
        0x00000eb6:    7828        (x      LDRB     r0,[r5,#0]
        0x00000eb8:    286c        l(      CMP      r0,#0x6c
        0x00000eba:    d010        ..      BEQ      0xede ; _printf_core + 218
        0x00000ebc:    dc06        ..      BGT      0xecc ; _printf_core + 200
        0x00000ebe:    284c        L(      CMP      r0,#0x4c
        0x00000ec0:    d01a        ..      BEQ      0xef8 ; _printf_core + 244
        0x00000ec2:    2868        h(      CMP      r0,#0x68
        0x00000ec4:    d00e        ..      BEQ      0xee4 ; _printf_core + 224
        0x00000ec6:    286a        j(      CMP      r0,#0x6a
        0x00000ec8:    d117        ..      BNE      0xefa ; _printf_core + 246
        0x00000eca:    e004        ..      B        0xed6 ; _printf_core + 210
        0x00000ecc:    2874        t(      CMP      r0,#0x74
        0x00000ece:    d013        ..      BEQ      0xef8 ; _printf_core + 244
        0x00000ed0:    287a        z(      CMP      r0,#0x7a
        0x00000ed2:    d112        ..      BNE      0xefa ; _printf_core + 246
        0x00000ed4:    e010        ..      B        0xef8 ; _printf_core + 244
        0x00000ed6:    2001        .       MOVS     r0,#1
        0x00000ed8:    0540        @.      LSLS     r0,r0,#21
        0x00000eda:    4304        .C      ORRS     r4,r4,r0
        0x00000edc:    e00c        ..      B        0xef8 ; _printf_core + 244
        0x00000ede:    2101        .!      MOVS     r1,#1
        0x00000ee0:    0509        ..      LSLS     r1,r1,#20
        0x00000ee2:    e001        ..      B        0xee8 ; _printf_core + 228
        0x00000ee4:    2103        .!      MOVS     r1,#3
        0x00000ee6:    0509        ..      LSLS     r1,r1,#20
        0x00000ee8:    430c        .C      ORRS     r4,r4,r1
        0x00000eea:    7869        ix      LDRB     r1,[r5,#1]
        0x00000eec:    4281        .B      CMP      r1,r0
        0x00000eee:    d103        ..      BNE      0xef8 ; _printf_core + 244
        0x00000ef0:    2001        .       MOVS     r0,#1
        0x00000ef2:    0500        ..      LSLS     r0,r0,#20
        0x00000ef4:    1824        $.      ADDS     r4,r4,r0
        0x00000ef6:    1c6d        m.      ADDS     r5,r5,#1
        0x00000ef8:    1c6d        m.      ADDS     r5,r5,#1
        0x00000efa:    7828        (x      LDRB     r0,[r5,#0]
        0x00000efc:    9003        ..      STR      r0,[sp,#0xc]
        0x00000efe:    286e        n(      CMP      r0,#0x6e
        0x00000f00:    d01e        ..      BEQ      0xf40 ; _printf_core + 316
        0x00000f02:    dc0c        ..      BGT      0xf1e ; _printf_core + 282
        0x00000f04:    2863        c(      CMP      r0,#0x63
        0x00000f06:    d031        1.      BEQ      0xf6c ; _printf_core + 360
        0x00000f08:    dc04        ..      BGT      0xf14 ; _printf_core + 272
        0x00000f0a:    2800        .(      CMP      r0,#0
        0x00000f0c:    d08a        ..      BEQ      0xe24 ; _printf_core + 32
        0x00000f0e:    2858        X(      CMP      r0,#0x58
        0x00000f10:    d111        ..      BNE      0xf36 ; _printf_core + 306
        0x00000f12:    e0b2        ..      B        0x107a ; _printf_core + 630
        0x00000f14:    2864        d(      CMP      r0,#0x64
        0x00000f16:    d07b        {.      BEQ      0x1010 ; _printf_core + 524
        0x00000f18:    2869        i(      CMP      r0,#0x69
        0x00000f1a:    d10c        ..      BNE      0xf36 ; _printf_core + 306
        0x00000f1c:    e078        x.      B        0x1010 ; _printf_core + 524
        0x00000f1e:    2873        s(      CMP      r0,#0x73
        0x00000f20:    d02d        -.      BEQ      0xf7e ; _printf_core + 378
        0x00000f22:    dc04        ..      BGT      0xf2e ; _printf_core + 298
        0x00000f24:    286f        o(      CMP      r0,#0x6f
        0x00000f26:    d070        p.      BEQ      0x100a ; _printf_core + 518
        0x00000f28:    2870        p(      CMP      r0,#0x70
        0x00000f2a:    d104        ..      BNE      0xf36 ; _printf_core + 306
        0x00000f2c:    e0a7        ..      B        0x107e ; _printf_core + 634
        0x00000f2e:    2875        u(      CMP      r0,#0x75
        0x00000f30:    d06c        l.      BEQ      0x100c ; _printf_core + 520
        0x00000f32:    2878        x(      CMP      r0,#0x78
        0x00000f34:    d06b        k.      BEQ      0x100e ; _printf_core + 522
        0x00000f36:    9a14        ..      LDR      r2,[sp,#0x50]
        0x00000f38:    9913        ..      LDR      r1,[sp,#0x4c]
        0x00000f3a:    4790        .G      BLX      r2
        0x00000f3c:    1c76        v.      ADDS     r6,r6,#1
        0x00000f3e:    e062        b.      B        0x1006 ; _printf_core + 514
        0x00000f40:    0260        `.      LSLS     r0,r4,#9
        0x00000f42:    0f40        @.      LSRS     r0,r0,#29
        0x00000f44:    2802        .(      CMP      r0,#2
        0x00000f46:    d007        ..      BEQ      0xf58 ; _printf_core + 340
        0x00000f48:    2803        .(      CMP      r0,#3
        0x00000f4a:    d00a        ..      BEQ      0xf62 ; _printf_core + 350
        0x00000f4c:    2804        .(      CMP      r0,#4
        0x00000f4e:    6838        8h      LDR      r0,[r7,#0]
        0x00000f50:    d00a        ..      BEQ      0xf68 ; _printf_core + 356
        0x00000f52:    6006        .`      STR      r6,[r0,#0]
        0x00000f54:    1d3f        ?.      ADDS     r7,r7,#4
        0x00000f56:    e056        V.      B        0x1006 ; _printf_core + 514
        0x00000f58:    6838        8h      LDR      r0,[r7,#0]
        0x00000f5a:    17f1        ..      ASRS     r1,r6,#31
        0x00000f5c:    6006        .`      STR      r6,[r0,#0]
        0x00000f5e:    6041        A`      STR      r1,[r0,#4]
        0x00000f60:    e7f8        ..      B        0xf54 ; _printf_core + 336
        0x00000f62:    6838        8h      LDR      r0,[r7,#0]
        0x00000f64:    8006        ..      STRH     r6,[r0,#0]
        0x00000f66:    e7f5        ..      B        0xf54 ; _printf_core + 336
        0x00000f68:    7006        .p      STRB     r6,[r0,#0]
        0x00000f6a:    e7f3        ..      B        0xf54 ; _printf_core + 336
        0x00000f6c:    7838        8x      LDRB     r0,[r7,#0]
        0x00000f6e:    4669        iF      MOV      r1,sp
        0x00000f70:    7408        .t      STRB     r0,[r1,#0x10]
        0x00000f72:    2000        .       MOVS     r0,#0
        0x00000f74:    7448        Ht      STRB     r0,[r1,#0x11]
        0x00000f76:    a804        ..      ADD      r0,sp,#0x10
        0x00000f78:    9003        ..      STR      r0,[sp,#0xc]
        0x00000f7a:    2001        .       MOVS     r0,#1
        0x00000f7c:    e003        ..      B        0xf86 ; _printf_core + 386
        0x00000f7e:    6838        8h      LDR      r0,[r7,#0]
        0x00000f80:    9003        ..      STR      r0,[sp,#0xc]
        0x00000f82:    2000        .       MOVS     r0,#0
        0x00000f84:    43c0        .C      MVNS     r0,r0
        0x00000f86:    1d3f        ?.      ADDS     r7,r7,#4
        0x00000f88:    0761        a.      LSLS     r1,r4,#29
        0x00000f8a:    d50f        ..      BPL      0xfac ; _printf_core + 424
        0x00000f8c:    2100        .!      MOVS     r1,#0
        0x00000f8e:    e001        ..      B        0xf94 ; _printf_core + 400
        0x00000f90:    9901        ..      LDR      r1,[sp,#4]
        0x00000f92:    1c49        I.      ADDS     r1,r1,#1
        0x00000f94:    9a02        ..      LDR      r2,[sp,#8]
        0x00000f96:    9101        ..      STR      r1,[sp,#4]
        0x00000f98:    4291        .B      CMP      r1,r2
        0x00000f9a:    da13        ..      BGE      0xfc4 ; _printf_core + 448
        0x00000f9c:    4281        .B      CMP      r1,r0
        0x00000f9e:    dbf7        ..      BLT      0xf90 ; _printf_core + 396
        0x00000fa0:    9a01        ..      LDR      r2,[sp,#4]
        0x00000fa2:    9903        ..      LDR      r1,[sp,#0xc]
        0x00000fa4:    5c89        .\      LDRB     r1,[r1,r2]
        0x00000fa6:    2900        .)      CMP      r1,#0
        0x00000fa8:    d1f2        ..      BNE      0xf90 ; _printf_core + 396
        0x00000faa:    e00b        ..      B        0xfc4 ; _printf_core + 448
        0x00000fac:    2100        .!      MOVS     r1,#0
        0x00000fae:    e001        ..      B        0xfb4 ; _printf_core + 432
        0x00000fb0:    9901        ..      LDR      r1,[sp,#4]
        0x00000fb2:    1c49        I.      ADDS     r1,r1,#1
        0x00000fb4:    9101        ..      STR      r1,[sp,#4]
        0x00000fb6:    4281        .B      CMP      r1,r0
        0x00000fb8:    dbfa        ..      BLT      0xfb0 ; _printf_core + 428
        0x00000fba:    9a01        ..      LDR      r2,[sp,#4]
        0x00000fbc:    9903        ..      LDR      r1,[sp,#0xc]
        0x00000fbe:    5c89        .\      LDRB     r1,[r1,r2]
        0x00000fc0:    2900        .)      CMP      r1,#0
        0x00000fc2:    d1f5        ..      BNE      0xfb0 ; _printf_core + 428
        0x00000fc4:    9901        ..      LDR      r1,[sp,#4]
        0x00000fc6:    9800        ..      LDR      r0,[sp,#0]
        0x00000fc8:    9a13        ..      LDR      r2,[sp,#0x4c]
        0x00000fca:    1a40        @.      SUBS     r0,r0,r1
        0x00000fcc:    9000        ..      STR      r0,[sp,#0]
        0x00000fce:    4621        !F      MOV      r1,r4
        0x00000fd0:    9b14        ..      LDR      r3,[sp,#0x50]
        0x00000fd2:    f000f93b    ..;.    BL       _printf_pre_padding ; 0x124c
        0x00000fd6:    9901        ..      LDR      r1,[sp,#4]
        0x00000fd8:    1980        ..      ADDS     r0,r0,r6
        0x00000fda:    1846        F.      ADDS     r6,r0,r1
        0x00000fdc:    e007        ..      B        0xfee ; _printf_core + 490
        0x00000fde:    9803        ..      LDR      r0,[sp,#0xc]
        0x00000fe0:    9903        ..      LDR      r1,[sp,#0xc]
        0x00000fe2:    7800        .x      LDRB     r0,[r0,#0]
        0x00000fe4:    1c49        I.      ADDS     r1,r1,#1
        0x00000fe6:    9103        ..      STR      r1,[sp,#0xc]
        0x00000fe8:    9a14        ..      LDR      r2,[sp,#0x50]
        0x00000fea:    9913        ..      LDR      r1,[sp,#0x4c]
        0x00000fec:    4790        .G      BLX      r2
        0x00000fee:    9801        ..      LDR      r0,[sp,#4]
        0x00000ff0:    1e40        @.      SUBS     r0,r0,#1
        0x00000ff2:    9001        ..      STR      r0,[sp,#4]
        0x00000ff4:    1c40        @.      ADDS     r0,r0,#1
        0x00000ff6:    d1f2        ..      BNE      0xfde ; _printf_core + 474
        0x00000ff8:    4621        !F      MOV      r1,r4
        0x00000ffa:    9b14        ..      LDR      r3,[sp,#0x50]
        0x00000ffc:    9a13        ..      LDR      r2,[sp,#0x4c]
        0x00000ffe:    9800        ..      LDR      r0,[sp,#0]
        0x00001000:    f000f914    ....    BL       _printf_post_padding ; 0x122c
        0x00001004:    1986        ..      ADDS     r6,r0,r6
        0x00001006:    1c6d        m.      ADDS     r5,r5,#1
        0x00001008:    e709        ..      B        0xe1e ; _printf_core + 26
        0x0000100a:    e041        A.      B        0x1090 ; _printf_core + 652
        0x0000100c:    e033        3.      B        0x1076 ; _printf_core + 626
        0x0000100e:    e034        4.      B        0x107a ; _printf_core + 630
        0x00001010:    200a        .       MOVS     r0,#0xa
        0x00001012:    2100        .!      MOVS     r1,#0
        0x00001014:    9004        ..      STR      r0,[sp,#0x10]
        0x00001016:    9105        ..      STR      r1,[sp,#0x14]
        0x00001018:    0260        `.      LSLS     r0,r4,#9
        0x0000101a:    0f41        A.      LSRS     r1,r0,#29
        0x0000101c:    2902        .)      CMP      r1,#2
        0x0000101e:    d005        ..      BEQ      0x102c ; _printf_core + 552
        0x00001020:    cf01        ..      LDM      r7!,{r0}
        0x00001022:    17c2        ..      ASRS     r2,r0,#31
        0x00001024:    4694        .F      MOV      r12,r2
        0x00001026:    2903        .)      CMP      r1,#3
        0x00001028:    d005        ..      BEQ      0x1036 ; _printf_core + 562
        0x0000102a:    e007        ..      B        0x103c ; _printf_core + 568
        0x0000102c:    1dff        ..      ADDS     r7,r7,#7
        0x0000102e:    08ff        ..      LSRS     r7,r7,#3
        0x00001030:    00ff        ..      LSLS     r7,r7,#3
        0x00001032:    cf03        ..      LDM      r7!,{r0,r1}
        0x00001034:    e006        ..      B        0x1044 ; _printf_core + 576
        0x00001036:    b200        ..      SXTH     r0,r0
        0x00001038:    17c2        ..      ASRS     r2,r0,#31
        0x0000103a:    4694        .F      MOV      r12,r2
        0x0000103c:    2904        .)      CMP      r1,#4
        0x0000103e:    d102        ..      BNE      0x1046 ; _printf_core + 578
        0x00001040:    b240        @.      SXTB     r0,r0
        0x00001042:    17c1        ..      ASRS     r1,r0,#31
        0x00001044:    468c        .F      MOV      r12,r1
        0x00001046:    2200        ."      MOVS     r2,#0
        0x00001048:    4661        aF      MOV      r1,r12
        0x0000104a:    4594        .E      CMP      r12,r2
        0x0000104c:    da06        ..      BGE      0x105c ; _printf_core + 600
        0x0000104e:    460a        .F      MOV      r2,r1
        0x00001050:    2100        .!      MOVS     r1,#0
        0x00001052:    4240        @B      RSBS     r0,r0,#0
        0x00001054:    4191        .A      SBCS     r1,r1,r2
        0x00001056:    468c        .F      MOV      r12,r1
        0x00001058:    212d        -!      MOVS     r1,#0x2d
        0x0000105a:    e002        ..      B        0x1062 ; _printf_core + 606
        0x0000105c:    0521        !.      LSLS     r1,r4,#20
        0x0000105e:    d504        ..      BPL      0x106a ; _printf_core + 614
        0x00001060:    212b        +!      MOVS     r1,#0x2b
        0x00001062:    466a        jF      MOV      r2,sp
        0x00001064:    7611        .v      STRB     r1,[r2,#0x18]
        0x00001066:    2101        .!      MOVS     r1,#1
        0x00001068:    e003        ..      B        0x1072 ; _printf_core + 622
        0x0000106a:    07e1        ..      LSLS     r1,r4,#31
        0x0000106c:    d001        ..      BEQ      0x1072 ; _printf_core + 622
        0x0000106e:    2120         !      MOVS     r1,#0x20
        0x00001070:    e7f7        ..      B        0x1062 ; _printf_core + 606
        0x00001072:    9101        ..      STR      r1,[sp,#4]
        0x00001074:    e054        T.      B        0x1120 ; _printf_core + 796
        0x00001076:    200a        .       MOVS     r0,#0xa
        0x00001078:    e00b        ..      B        0x1092 ; _printf_core + 654
        0x0000107a:    2010        .       MOVS     r0,#0x10
        0x0000107c:    e009        ..      B        0x1092 ; _printf_core + 654
        0x0000107e:    2010        .       MOVS     r0,#0x10
        0x00001080:    9004        ..      STR      r0,[sp,#0x10]
        0x00001082:    2100        .!      MOVS     r1,#0
        0x00001084:    2004        .       MOVS     r0,#4
        0x00001086:    4304        .C      ORRS     r4,r4,r0
        0x00001088:    2008        .       MOVS     r0,#8
        0x0000108a:    9105        ..      STR      r1,[sp,#0x14]
        0x0000108c:    9002        ..      STR      r0,[sp,#8]
        0x0000108e:    e003        ..      B        0x1098 ; _printf_core + 660
        0x00001090:    2008        .       MOVS     r0,#8
        0x00001092:    2100        .!      MOVS     r1,#0
        0x00001094:    9105        ..      STR      r1,[sp,#0x14]
        0x00001096:    9004        ..      STR      r0,[sp,#0x10]
        0x00001098:    0260        `.      LSLS     r0,r4,#9
        0x0000109a:    0f41        A.      LSRS     r1,r0,#29
        0x0000109c:    2902        .)      CMP      r1,#2
        0x0000109e:    d005        ..      BEQ      0x10ac ; _printf_core + 680
        0x000010a0:    cf01        ..      LDM      r7!,{r0}
        0x000010a2:    2200        ."      MOVS     r2,#0
        0x000010a4:    4694        .F      MOV      r12,r2
        0x000010a6:    2903        .)      CMP      r1,#3
        0x000010a8:    d006        ..      BEQ      0x10b8 ; _printf_core + 692
        0x000010aa:    e006        ..      B        0x10ba ; _printf_core + 694
        0x000010ac:    1dff        ..      ADDS     r7,r7,#7
        0x000010ae:    08ff        ..      LSRS     r7,r7,#3
        0x000010b0:    00ff        ..      LSLS     r7,r7,#3
        0x000010b2:    cf03        ..      LDM      r7!,{r0,r1}
        0x000010b4:    468c        .F      MOV      r12,r1
        0x000010b6:    e003        ..      B        0x10c0 ; _printf_core + 700
        0x000010b8:    b280        ..      UXTH     r0,r0
        0x000010ba:    2904        .)      CMP      r1,#4
        0x000010bc:    d100        ..      BNE      0x10c0 ; _printf_core + 700
        0x000010be:    b2c0        ..      UXTB     r0,r0
        0x000010c0:    2100        .!      MOVS     r1,#0
        0x000010c2:    9101        ..      STR      r1,[sp,#4]
        0x000010c4:    0721        !.      LSLS     r1,r4,#28
        0x000010c6:    d52b        +.      BPL      0x1120 ; _printf_core + 796
        0x000010c8:    9903        ..      LDR      r1,[sp,#0xc]
        0x000010ca:    2970        p)      CMP      r1,#0x70
        0x000010cc:    d006        ..      BEQ      0x10dc ; _printf_core + 728
        0x000010ce:    9a04        ..      LDR      r2,[sp,#0x10]
        0x000010d0:    2110        .!      MOVS     r1,#0x10
        0x000010d2:    9b05        ..      LDR      r3,[sp,#0x14]
        0x000010d4:    404a        J@      EORS     r2,r2,r1
        0x000010d6:    431a        .C      ORRS     r2,r2,r3
        0x000010d8:    d005        ..      BEQ      0x10e6 ; _printf_core + 738
        0x000010da:    e00e        ..      B        0x10fa ; _printf_core + 758
        0x000010dc:    2140        @!      MOVS     r1,#0x40
        0x000010de:    466a        jF      MOV      r2,sp
        0x000010e0:    7611        .v      STRB     r1,[r2,#0x18]
        0x000010e2:    2101        .!      MOVS     r1,#1
        0x000010e4:    e008        ..      B        0x10f8 ; _printf_core + 756
        0x000010e6:    4661        aF      MOV      r1,r12
        0x000010e8:    4301        .C      ORRS     r1,r1,r0
        0x000010ea:    d006        ..      BEQ      0x10fa ; _printf_core + 758
        0x000010ec:    2130        0!      MOVS     r1,#0x30
        0x000010ee:    466a        jF      MOV      r2,sp
        0x000010f0:    7611        .v      STRB     r1,[r2,#0x18]
        0x000010f2:    9903        ..      LDR      r1,[sp,#0xc]
        0x000010f4:    7651        Qv      STRB     r1,[r2,#0x19]
        0x000010f6:    2102        .!      MOVS     r1,#2
        0x000010f8:    9101        ..      STR      r1,[sp,#4]
        0x000010fa:    9a04        ..      LDR      r2,[sp,#0x10]
        0x000010fc:    2108        .!      MOVS     r1,#8
        0x000010fe:    9b05        ..      LDR      r3,[sp,#0x14]
        0x00001100:    404a        J@      EORS     r2,r2,r1
        0x00001102:    431a        .C      ORRS     r2,r2,r3
        0x00001104:    d10c        ..      BNE      0x1120 ; _printf_core + 796
        0x00001106:    4661        aF      MOV      r1,r12
        0x00001108:    4301        .C      ORRS     r1,r1,r0
        0x0000110a:    d101        ..      BNE      0x1110 ; _printf_core + 780
        0x0000110c:    0761        a.      LSLS     r1,r4,#29
        0x0000110e:    d507        ..      BPL      0x1120 ; _printf_core + 796
        0x00001110:    2130        0!      MOVS     r1,#0x30
        0x00001112:    466a        jF      MOV      r2,sp
        0x00001114:    7611        .v      STRB     r1,[r2,#0x18]
        0x00001116:    2101        .!      MOVS     r1,#1
        0x00001118:    9101        ..      STR      r1,[sp,#4]
        0x0000111a:    9902        ..      LDR      r1,[sp,#8]
        0x0000111c:    1e49        I.      SUBS     r1,r1,#1
        0x0000111e:    9102        ..      STR      r1,[sp,#8]
        0x00001120:    9903        ..      LDR      r1,[sp,#0xc]
        0x00001122:    2958        X)      CMP      r1,#0x58
        0x00001124:    d004        ..      BEQ      0x1130 ; _printf_core + 812
        0x00001126:    a137        7.      ADR      r1,{pc}+0xde ; 0x1204
        0x00001128:    9103        ..      STR      r1,[sp,#0xc]
        0x0000112a:    a90f        ..      ADD      r1,sp,#0x3c
        0x0000112c:    910f        ..      STR      r1,[sp,#0x3c]
        0x0000112e:    e00d        ..      B        0x114c ; _printf_core + 840
        0x00001130:    a139        9.      ADR      r1,{pc}+0xe8 ; 0x1218
        0x00001132:    e7f9        ..      B        0x1128 ; _printf_core + 804
        0x00001134:    4661        aF      MOV      r1,r12
        0x00001136:    9b05        ..      LDR      r3,[sp,#0x14]
        0x00001138:    9a04        ..      LDR      r2,[sp,#0x10]
        0x0000113a:    f7fff80b    ....    BL       __aeabi_uldivmod ; 0x154
        0x0000113e:    9b03        ..      LDR      r3,[sp,#0xc]
        0x00001140:    468c        .F      MOV      r12,r1
        0x00001142:    5c9b        .\      LDRB     r3,[r3,r2]
        0x00001144:    9a0f        ..      LDR      r2,[sp,#0x3c]
        0x00001146:    1e52        R.      SUBS     r2,r2,#1
        0x00001148:    920f        ..      STR      r2,[sp,#0x3c]
        0x0000114a:    7013        .p      STRB     r3,[r2,#0]
        0x0000114c:    4661        aF      MOV      r1,r12
        0x0000114e:    4301        .C      ORRS     r1,r1,r0
        0x00001150:    d1f0        ..      BNE      0x1134 ; _printf_core + 816
        0x00001152:    980f        ..      LDR      r0,[sp,#0x3c]
        0x00001154:    a907        ..      ADD      r1,sp,#0x1c
        0x00001156:    1a08        ..      SUBS     r0,r1,r0
        0x00001158:    3020         0      ADDS     r0,r0,#0x20
        0x0000115a:    9003        ..      STR      r0,[sp,#0xc]
        0x0000115c:    0760        `.      LSLS     r0,r4,#29
        0x0000115e:    d504        ..      BPL      0x116a ; _printf_core + 870
        0x00001160:    2001        .       MOVS     r0,#1
        0x00001162:    0400        ..      LSLS     r0,r0,#16
        0x00001164:    4384        .C      BICS     r4,r4,r0
        0x00001166:    9802        ..      LDR      r0,[sp,#8]
        0x00001168:    e001        ..      B        0x116e ; _printf_core + 874
        0x0000116a:    2001        .       MOVS     r0,#1
        0x0000116c:    9002        ..      STR      r0,[sp,#8]
        0x0000116e:    9903        ..      LDR      r1,[sp,#0xc]
        0x00001170:    4288        .B      CMP      r0,r1
        0x00001172:    dd01        ..      BLE      0x1178 ; _printf_core + 884
        0x00001174:    1a40        @.      SUBS     r0,r0,r1
        0x00001176:    e000        ..      B        0x117a ; _printf_core + 886
        0x00001178:    2000        .       MOVS     r0,#0
        0x0000117a:    1841        A.      ADDS     r1,r0,r1
        0x0000117c:    9002        ..      STR      r0,[sp,#8]
        0x0000117e:    9801        ..      LDR      r0,[sp,#4]
        0x00001180:    1809        ..      ADDS     r1,r1,r0
        0x00001182:    9800        ..      LDR      r0,[sp,#0]
        0x00001184:    1a40        @.      SUBS     r0,r0,r1
        0x00001186:    9000        ..      STR      r0,[sp,#0]
        0x00001188:    03e0        ..      LSLS     r0,r4,#15
        0x0000118a:    d406        ..      BMI      0x119a ; _printf_core + 918
        0x0000118c:    4621        !F      MOV      r1,r4
        0x0000118e:    9b14        ..      LDR      r3,[sp,#0x50]
        0x00001190:    9a13        ..      LDR      r2,[sp,#0x4c]
        0x00001192:    9800        ..      LDR      r0,[sp,#0]
        0x00001194:    f000f85a    ..Z.    BL       _printf_pre_padding ; 0x124c
        0x00001198:    1986        ..      ADDS     r6,r0,r6
        0x0000119a:    2000        .       MOVS     r0,#0
        0x0000119c:    9004        ..      STR      r0,[sp,#0x10]
        0x0000119e:    e008        ..      B        0x11b2 ; _printf_core + 942
        0x000011a0:    a906        ..      ADD      r1,sp,#0x18
        0x000011a2:    5c08        .\      LDRB     r0,[r1,r0]
        0x000011a4:    9a14        ..      LDR      r2,[sp,#0x50]
        0x000011a6:    9913        ..      LDR      r1,[sp,#0x4c]
        0x000011a8:    4790        .G      BLX      r2
        0x000011aa:    9804        ..      LDR      r0,[sp,#0x10]
        0x000011ac:    1c40        @.      ADDS     r0,r0,#1
        0x000011ae:    1c76        v.      ADDS     r6,r6,#1
        0x000011b0:    9004        ..      STR      r0,[sp,#0x10]
        0x000011b2:    9901        ..      LDR      r1,[sp,#4]
        0x000011b4:    4288        .B      CMP      r0,r1
        0x000011b6:    dbf3        ..      BLT      0x11a0 ; _printf_core + 924
        0x000011b8:    03e0        ..      LSLS     r0,r4,#15
        0x000011ba:    d50c        ..      BPL      0x11d6 ; _printf_core + 978
        0x000011bc:    4621        !F      MOV      r1,r4
        0x000011be:    9b14        ..      LDR      r3,[sp,#0x50]
        0x000011c0:    9a13        ..      LDR      r2,[sp,#0x4c]
        0x000011c2:    9800        ..      LDR      r0,[sp,#0]
        0x000011c4:    f000f842    ..B.    BL       _printf_pre_padding ; 0x124c
        0x000011c8:    1986        ..      ADDS     r6,r0,r6
        0x000011ca:    e004        ..      B        0x11d6 ; _printf_core + 978
        0x000011cc:    9a14        ..      LDR      r2,[sp,#0x50]
        0x000011ce:    2030        0       MOVS     r0,#0x30
        0x000011d0:    9913        ..      LDR      r1,[sp,#0x4c]
        0x000011d2:    4790        .G      BLX      r2
        0x000011d4:    1c76        v.      ADDS     r6,r6,#1
        0x000011d6:    9902        ..      LDR      r1,[sp,#8]
        0x000011d8:    1e48        H.      SUBS     r0,r1,#1
        0x000011da:    9002        ..      STR      r0,[sp,#8]
        0x000011dc:    2900        .)      CMP      r1,#0
        0x000011de:    dcf5        ..      BGT      0x11cc ; _printf_core + 968
        0x000011e0:    e008        ..      B        0x11f4 ; _printf_core + 1008
        0x000011e2:    980f        ..      LDR      r0,[sp,#0x3c]
        0x000011e4:    990f        ..      LDR      r1,[sp,#0x3c]
        0x000011e6:    7800        .x      LDRB     r0,[r0,#0]
        0x000011e8:    1c49        I.      ADDS     r1,r1,#1
        0x000011ea:    910f        ..      STR      r1,[sp,#0x3c]
        0x000011ec:    9a14        ..      LDR      r2,[sp,#0x50]
        0x000011ee:    9913        ..      LDR      r1,[sp,#0x4c]
        0x000011f0:    4790        .G      BLX      r2
        0x000011f2:    1c76        v.      ADDS     r6,r6,#1
        0x000011f4:    9903        ..      LDR      r1,[sp,#0xc]
        0x000011f6:    1e48        H.      SUBS     r0,r1,#1
        0x000011f8:    9003        ..      STR      r0,[sp,#0xc]
        0x000011fa:    2900        .)      CMP      r1,#0
        0x000011fc:    dcf1        ..      BGT      0x11e2 ; _printf_core + 990
        0x000011fe:    e6fb        ..      B        0xff8 ; _printf_core + 500
    $d
        0x00001200:    00012809    .(..    DCD    75785
        0x00001204:    33323130    0123    DCD    858927408
        0x00001208:    37363534    4567    DCD    926299444
        0x0000120c:    62613938    89ab    DCD    1650538808
        0x00001210:    66656463    cdef    DCD    1717920867
        0x00001214:    00000000    ....    DCD    0
        0x00001218:    33323130    0123    DCD    858927408
        0x0000121c:    37363534    4567    DCD    926299444
        0x00001220:    42413938    89AB    DCD    1111570744
        0x00001224:    46454443    CDEF    DCD    1178944579
        0x00001228:    00000000    ....    DCD    0
    $t
    i._printf_post_padding
    _printf_post_padding
        0x0000122c:    b5f8        ..      PUSH     {r3-r7,lr}
        0x0000122e:    4604        .F      MOV      r4,r0
        0x00001230:    2500        .%      MOVS     r5,#0
        0x00001232:    461e        .F      MOV      r6,r3
        0x00001234:    4617        .F      MOV      r7,r2
        0x00001236:    0488        ..      LSLS     r0,r1,#18
        0x00001238:    d404        ..      BMI      0x1244 ; _printf_post_padding + 24
        0x0000123a:    e005        ..      B        0x1248 ; _printf_post_padding + 28
        0x0000123c:    4639        9F      MOV      r1,r7
        0x0000123e:    2020                MOVS     r0,#0x20
        0x00001240:    47b0        .G      BLX      r6
        0x00001242:    1c6d        m.      ADDS     r5,r5,#1
        0x00001244:    1e64        d.      SUBS     r4,r4,#1
        0x00001246:    d5f9        ..      BPL      0x123c ; _printf_post_padding + 16
        0x00001248:    4628        (F      MOV      r0,r5
        0x0000124a:    bdf8        ..      POP      {r3-r7,pc}
    i._printf_pre_padding
    _printf_pre_padding
        0x0000124c:    b5ff        ..      PUSH     {r0-r7,lr}
        0x0000124e:    4604        .F      MOV      r4,r0
        0x00001250:    2500        .%      MOVS     r5,#0
        0x00001252:    b081        ..      SUB      sp,sp,#4
        0x00001254:    461e        .F      MOV      r6,r3
        0x00001256:    03c8        ..      LSLS     r0,r1,#15
        0x00001258:    d501        ..      BPL      0x125e ; _printf_pre_padding + 18
        0x0000125a:    2730        0'      MOVS     r7,#0x30
        0x0000125c:    e000        ..      B        0x1260 ; _printf_pre_padding + 20
        0x0000125e:    2720         '      MOVS     r7,#0x20
        0x00001260:    0488        ..      LSLS     r0,r1,#18
        0x00001262:    d504        ..      BPL      0x126e ; _printf_pre_padding + 34
        0x00001264:    e005        ..      B        0x1272 ; _printf_pre_padding + 38
        0x00001266:    4638        8F      MOV      r0,r7
        0x00001268:    9903        ..      LDR      r1,[sp,#0xc]
        0x0000126a:    47b0        .G      BLX      r6
        0x0000126c:    1c6d        m.      ADDS     r5,r5,#1
        0x0000126e:    1e64        d.      SUBS     r4,r4,#1
        0x00001270:    d5f9        ..      BPL      0x1266 ; _printf_pre_padding + 26
        0x00001272:    4628        (F      MOV      r0,r5
        0x00001274:    b005        ..      ADD      sp,sp,#0x14
        0x00001276:    bdf0        ..      POP      {r4-r7,pc}
    i.puts
    puts
        0x00001278:    b510        ..      PUSH     {r4,lr}
        0x0000127a:    4604        .F      MOV      r4,r0
        0x0000127c:    e001        ..      B        0x1282 ; puts + 10
        0x0000127e:    f7fffa2d    ..-.    BL       fputc ; 0x6dc
        0x00001282:    7820         x      LDRB     r0,[r4,#0]
        0x00001284:    1c64        d.      ADDS     r4,r4,#1
        0x00001286:    4903        .I      LDR      r1,[pc,#12] ; [0x1294] = 0x20000094
        0x00001288:    2800        .(      CMP      r0,#0
        0x0000128a:    d1f8        ..      BNE      0x127e ; puts + 6
        0x0000128c:    200a        .       MOVS     r0,#0xa
        0x0000128e:    f7fffa25    ..%.    BL       fputc ; 0x6dc
        0x00001292:    bd10        ..      POP      {r4,pc}
    $d
        0x00001294:    20000094    ...     DCD    536871060
    $d.realdata
        0x00001298:    01e84800    .H..    DCD    32000000
        0x0000129c:    00008000    ....    DCD    32768
        0x000012a0:    00000000    ....    DCD    0
        0x000012a4:    00000000    ....    DCD    0
        0x000012a8:    00000000    ....    DCD    0
        0x000012ac:    00009600    ....    DCD    38400
        0x000012b0:    00000000    ....    DCD    0
        0x000012b4:    02dc6c00    .l..    DCD    48000000
        0x000012b8:    04020201    ....    DCD    67240449
        0x000012bc:    253a7325    %s:%    DCD    624587557
        0x000012c0:    28206434    4d (    DCD    673211444
        0x000012c4:    65732031    1 se    DCD    1702043697
        0x000012c8:    0a0d2963    c)..    DCD    168634723
        0x000012cc:    73655200    .Res    DCD    1936019968
        0x000012d0:    53207465    et S    DCD    1394635877
        0x000012d4:    6372756f    ourc    DCD    1668445551
        0x000012d8:    303c2065    e <0    DCD    809246821
        0x000012dc:    38302578    x%08    DCD    942679416
        0x000012e0:    0a0d3e58    X>..    DCD    168640088
        0x000012e4:    73617400    .tas    DCD    1935766528
        0x000012e8:    6920316b    k1 i    DCD    1763717483
        0x000012ec:    203d2064    d =     DCD    540876900
        0x000012f0:    0a0d6425    %d..    DCD    168649765
        0x000012f4:    73617400    .tas    DCD    1935766528
        0x000012f8:    6920326b    k2 i    DCD    1763717739
        0x000012fc:    203d2064    d =     DCD    540876900
        0x00001300:    0a0d6425    %d..    DCD    168649765
        0x00001304:    73617400    .tas    DCD    1935766528
        0x00001308:    6920336b    k3 i    DCD    1763717995
        0x0000130c:    203d2064    d =     DCD    540876900
        0x00001310:    0a0d6425    %d..    DCD    168649765
        0x00001314:    73617400    .tas    DCD    1935766528
        0x00001318:    6920346b    k4 i    DCD    1763718251
        0x0000131c:    203d2064    d =     DCD    540876900
        0x00001320:    0a0d6425    %d..    DCD    168649765
        0x00001324:    73617400    .tas    DCD    1935766528
        0x00001328:    6920356b    k5 i    DCD    1763718507
        0x0000132c:    203d2064    d =     DCD    540876900
        0x00001330:    0a0d6425    %d..    DCD    168649765
        0x00001334:    616c6600    .fla    DCD    1634493952
        0x00001338:    61622067    g ba    DCD    1633820775
        0x0000133c:    74206573    se t    DCD    1948280179
        0x00001340:    72656d69    imer    DCD    1919249769
        0x00001344:    20646920     id     DCD    543451424
        0x00001348:    6425203d    = %d    DCD    1680154685
        0x0000134c:    63000a0d    ...c    DCD    1660946957
        0x00001350:    6d207570    pu m    DCD    1830843760
        0x00001354:    74696e6f    onit    DCD    1953066607
        0x00001358:    7420726f    or t    DCD    1948283503
        0x0000135c:    72656d69    imer    DCD    1919249769
        0x00001360:    20646920     id     DCD    543451424
        0x00001364:    6425203d    = %d    DCD    1680154685
        0x00001368:    43000a0d    ...C    DCD    1124076045
        0x0000136c:    475f4b4c    LK_G    DCD    1197427532
        0x00001370:    43487465    etHC    DCD    1128821861
        0x00001374:    72464b4c    LKFr    DCD    1917209420
        0x00001378:    3a207165    eq :    DCD    975204709
        0x0000137c:    64382520     %8d    DCD    1681401120
        0x00001380:    0d000a0d    ....    DCD    218106381
        0x00001384:    4b4c430a    .CLK    DCD    1263289098
        0x00001388:    7465475f    _Get    DCD    1952794463
        0x0000138c:    46555043    CPUF    DCD    1179996227
        0x00001390:    20716572    req     DCD    544302450
        0x00001394:    3825203a    : %8    DCD    941957178
        0x00001398:    000a0d64    d...    DCD    658788
        0x0000139c:    20555043    CPU     DCD    542462019
        0x000013a0:    64616f6c    load    DCD    1684107116
        0x000013a4:    25203d20     = %    DCD    622869792
        0x000013a8:    2e756c33    3lu.    DCD    779447347
        0x000013ac:    6c313025    %01l    DCD    1815162917
        0x000013b0:    20252575    u%%     DCD    539305333
        0x000013b4:    6c646928    (idl    DCD    1818519848
        0x000013b8:    6f6e5f65    e_no    DCD    1869504357
        0x000013bc:    6c253d77    w=%l    DCD    1814379895
        0x000013c0:    69202c75    u, i    DCD    1763716213
        0x000013c4:    5f656c64    dle_    DCD    1600482404
        0x000013c8:    3d78616d    max=    DCD    1031299437
        0x000013cc:    29756c25    %lu)    DCD    695561253
        0x000013d0:    6575512c    ,Que    DCD    1702187308
        0x000013d4:    64206575    ue d    DCD    1679844725
        0x000013d8:    68747065    epth    DCD    1752461413
        0x000013dc:    78616d20     max    DCD    2019650848
        0x000013e0:    2075253d    =%u     DCD    544548157
        0x000013e4:    7525202f    / %u    DCD    1965367343
        0x000013e8:    766f202c    , ov    DCD    1986994220
        0x000013ec:    6c667265    erfl    DCD    1818653285
        0x000013f0:    253d776f    ow=%    DCD    624785263
        0x000013f4:    0a0d756c    lu..    DCD    168654188
        0x000013f8:    53293500    .5)S    DCD    1395209472
        0x000013fc:    65747379    yste    DCD    1702130553
        0x00001400:    6552206d    m Re    DCD    1699881069
        0x00001404:    20746573    set     DCD    544499059
        0x00001408:    67616c46    Flag    DCD    1734437958
        0x0000140c:    36000d20     ..6    DCD    905973024
        0x00001410:    73655229    )Res    DCD    1936020009
        0x00001414:    65767265    erve    DCD    1702261349
        0x00001418:    000d2e64    d...    DCD    863844
        0x0000141c:    65776f70    powe    DCD    1702326128
        0x00001420:    6e6f2072    r on    DCD    1852776562
        0x00001424:    6f726620     fro    DCD    1869768224
        0x00001428:    4f50206d    m PO    DCD    1330651245
        0x0000142c:    70000d52    R..p    DCD    1879051602
        0x00001430:    7265776f    ower    DCD    1919252335
        0x00001434:    206e6f20     on     DCD    544108320
        0x00001438:    6d6f7266    from    DCD    1836020326
        0x0000143c:    686e7520     unh    DCD    1752069408
        0x00001440:    6c646e61    andl    DCD    1818521185
        0x00001444:    65722065    e re    DCD    1701978213
        0x00001448:    20746573    set     DCD    544499059
        0x0000144c:    72756f73    sour    DCD    1920298867
        0x00001450:    000d6563    ce..    DCD    877923
        0x00001454:    4f422934    4)BO    DCD    1329735988
        0x00001458:    65522044    D Re    DCD    1699881028
        0x0000145c:    20746573    set     DCD    544499059
        0x00001460:    67616c46    Flag    DCD    1734437958
        0x00001464:    2933000d    ..3)    DCD    691208205
        0x00001468:    2052564c    LVR     DCD    542266956
        0x0000146c:    65736552    Rese    DCD    1702061394
        0x00001470:    6c462074    t Fl    DCD    1816535156
        0x00001474:    000d6761    ag..    DCD    878433
        0x00001478:    44572932    2)WD    DCD    1146562866
        0x0000147c:    65522054    T Re    DCD    1699881044
        0x00001480:    20746573    set     DCD    544499059
        0x00001484:    67616c46    Flag    DCD    1734437958
        0x00001488:    2937000d    ..7)    DCD    691470349
        0x0000148c:    20555043    CPU     DCD    542462019
        0x00001490:    65736552    Rese    DCD    1702061394
        0x00001494:    6c462074    t Fl    DCD    1816535156
        0x00001498:    000d6761    ag..    DCD    878433
        0x0000149c:    524e2931    1)NR    DCD    1380854065
        0x000014a0:    54455345    ESET    DCD    1413829445
        0x000014a4:    6e695020     Pin    DCD    1852395552
        0x000014a8:    73655220     Res    DCD    1936020000
        0x000014ac:    46207465    et F    DCD    1176532069
        0x000014b0:    0d67616c    lag.    DCD    224878956
        0x000014b4:    43293800    .8)C    DCD    1126774784
        0x000014b8:    4c205550    PU L    DCD    1277187408
        0x000014bc:    756b636f    ocku    DCD    1969972079
        0x000014c0:    65522070    p Re    DCD    1699881072
        0x000014c4:    20746573    set     DCD    544499059
        0x000014c8:    67616c46    Flag    DCD    1734437958
        0x000014cc:    6f70000d    ..po    DCD    1869611021
        0x000014d0:    20726577    wer     DCD    544367991
        0x000014d4:    66206e6f    on f    DCD    1713401455
        0x000014d8:    206d6f72    rom     DCD    544042866
        0x000014dc:    5345526e    nRES    DCD    1397052014
        0x000014e0:    70205445    ET p    DCD    1881166917
        0x000014e4:    000d6e69    in..    DCD    880233
        0x000014e8:    65776f70    powe    DCD    1702326128
        0x000014ec:    6e6f2072    r on    DCD    1852776562
        0x000014f0:    6f726620     fro    DCD    1869768224
        0x000014f4:    4f42206d    m BO    DCD    1329733741
        0x000014f8:    65522044    D Re    DCD    1699881028
        0x000014fc:    0d746573    set.    DCD    225731955
        0x00001500:    776f7000    .pow    DCD    2003791872
        0x00001504:    6f207265    er o    DCD    1864397413
        0x00001508:    7266206e    n fr    DCD    1919295598
        0x0000150c:    4c206d6f    om L    DCD    1277193583
        0x00001510:    52205256    VR R    DCD    1377849942
        0x00001514:    74657365    eset    DCD    1952805733
        0x00001518:    6f70000d    ..po    DCD    1869611021
        0x0000151c:    20726577    wer     DCD    544367991
        0x00001520:    66206e6f    on f    DCD    1713401455
        0x00001524:    206d6f72    rom     DCD    544042866
        0x00001528:    20544457    WDT     DCD    542393431
        0x0000152c:    65736552    Rese    DCD    1702061394
        0x00001530:    70000d74    t..p    DCD    1879051636
        0x00001534:    7265776f    ower    DCD    1919252335
        0x00001538:    206e6f20     on     DCD    544108320
        0x0000153c:    6d6f7266    from    DCD    1836020326
        0x00001540:    73795320     Sys    DCD    1937330976
        0x00001544:    206d6574    tem     DCD    544040308
        0x00001548:    65736552    Rese    DCD    1702061394
        0x0000154c:    70000d74    t..p    DCD    1879051636
        0x00001550:    7265776f    ower    DCD    1919252335
        0x00001554:    206e6f20     on     DCD    544108320
        0x00001558:    6d6f7266    from    DCD    1836020326
        0x0000155c:    55504320     CPU    DCD    1431323424
        0x00001560:    636f4c20     Loc    DCD    1668238368
        0x00001564:    2070756b    kup     DCD    544241003
        0x00001568:    65736552    Rese    DCD    1702061394
        0x0000156c:    70000d74    t..p    DCD    1879051636
        0x00001570:    7265776f    ower    DCD    1919252335
        0x00001574:    206e6f20     on     DCD    544108320
        0x00001578:    6d6f7266    from    DCD    1836020326
        0x0000157c:    55504320     CPU    DCD    1431323424
        0x00001580:    73657220     res    DCD    1936028192
        0x00001584:    000d7465    et..    DCD    881765
        0x00001588:    20746553    Set     DCD    544499027
        0x0000158c:    74737973    syst    DCD    1953724787
        0x00001590:    74206d65    em t    DCD    1948282213
        0x00001594:    206b6369    ick     DCD    543908713
        0x00001598:    6f727265    erro    DCD    1869771365
        0x0000159c:    00212172    r!!.    DCD    2171250
    Region$$Table$$Base
        0x000015a0:    000015c0    ....    DCD    5568
        0x000015a4:    20000000    ...     DCD    536870912
        0x000015a8:    00000030    0...    DCD    48
        0x000015ac:    00000de4    ....    DCD    3556
        0x000015b0:    000015f0    ....    DCD    5616
        0x000015b4:    20000030    0..     DCD    536870960
        0x000015b8:    000009b8    ....    DCD    2488
        0x000015bc:    00000df4    ....    DCD    3572
    Region$$Table$$Limit

** Section #2 'ER_RW' (SHT_PROGBITS) [SHF_ALLOC + SHF_WRITE]
    Size   : 48 bytes (alignment 4)
    Address: 0x20000000


** Section #3 'ER_ZI' (SHT_NOBITS) [SHF_ALLOC + SHF_WRITE]
    Size   : 2488 bytes (alignment 8)
    Address: 0x20000030


** Section #4 '.debug_abbrev' (SHT_PROGBITS)
    Size   : 1679 bytes


** Section #5 '.debug_frame' (SHT_PROGBITS)
    Size   : 1340 bytes


** Section #6 '.debug_info' (SHT_PROGBITS)
    Size   : 14782 bytes


** Section #7 '.debug_line' (SHT_PROGBITS)
    Size   : 4935 bytes


** Section #8 '.debug_loc' (SHT_PROGBITS)
    Size   : 2006 bytes


** Section #9 '.debug_ranges' (SHT_PROGBITS)
    Size   : 392 bytes


** Section #10 '.debug_str' (SHT_PROGBITS)
    Size   : 4860 bytes


** Section #11 '.symtab' (SHT_SYMTAB)
    Size   : 5936 bytes (alignment 4)
    String table #12 '.strtab'
    Last local symbol no. 251


** Section #12 '.strtab' (SHT_STRTAB)
    Size   : 4896 bytes


** Section #13 '.note' (SHT_NOTE)
    Size   : 28 bytes (alignment 4)


** Section #14 '.comment' (SHT_PROGBITS)
    Size   : 1928 bytes


** Section #15 '.shstrtab' (SHT_STRTAB)
    Size   : 148 bytes


